Archive member included because of file (symbol)

D:\oxygine-sound\dependencies\openalext\lib\android\libopenal.a(android.o)
                              release\openalext_platform.os (alcSuspend)
D:\oxygine-sound\dependencies\openalext\lib\android\libopenal.a(alBuffer.o)
                              release\openalext_platform.os (alGenBuffers)
D:\oxygine-sound\dependencies\openalext\lib\android\libopenal.a(alError.o)
                              release\openalext_platform.os (alGetError)
D:\oxygine-sound\dependencies\openalext\lib\android\libopenal.a(alSource.o)
                              release\openalext_platform.os (alGenSources)
D:\oxygine-sound\dependencies\openalext\lib\android\libopenal.a(ALc.o)
                              D:\oxygine-sound\dependencies\openalext\lib\android\libopenal.a(alBuffer.o) (InsertUIntMapEntry)
D:\oxygine-sound\dependencies\openalext\lib\android\libopenal.a(alcConfig.o)
                              D:\oxygine-sound\dependencies\openalext\lib\android\libopenal.a(ALc.o) (ReadALConfig)
D:\oxygine-sound\dependencies\openalext\lib\android\libopenal.a(ALu.o)
                              D:\oxygine-sound\dependencies\openalext\lib\android\libopenal.a(alSource.o) (CalcNonAttnSourceParams)
D:\oxygine-sound\dependencies\openalext\lib\android\libopenal.a(bs2b.o)
                              D:\oxygine-sound\dependencies\openalext\lib\android\libopenal.a(ALc.o) (bs2b_set_level)
D:\oxygine-sound\dependencies\openalext\lib\android\libopenal.a(null.o)
                              D:\oxygine-sound\dependencies\openalext\lib\android\libopenal.a(ALc.o) (alc_null_init)
D:\oxygine-sound\dependencies\openalext\lib\android\libopenal.a(panning.o)
                              D:\oxygine-sound\dependencies\openalext\lib\android\libopenal.a(ALu.o) (aluCart2LUTpos)
D:\oxygine-sound\dependencies\openalext\lib\android\libopenal.a(mixer.o)
                              D:\oxygine-sound\dependencies\openalext\lib\android\libopenal.a(ALu.o) (MixSource)
D:\oxygine-sound\dependencies\openalext\lib\android\libopenal.a(audiotrack.o)
                              D:\oxygine-sound\dependencies\openalext\lib\android\libopenal.a(ALc.o) (alc_audiotrack_init)
D:\oxygine-sound\dependencies\openalext\lib\android\libopenal.a(opensles.o)
                              D:\oxygine-sound\dependencies\openalext\lib\android\libopenal.a(ALc.o) (alc_opensles_init)
D:\oxygine-sound\dependencies\openalext\lib\android\libopenal.a(alAuxEffectSlot.o)
                              D:\oxygine-sound\dependencies\openalext\lib\android\libopenal.a(ALc.o) (alDeleteAuxiliaryEffectSlots)
D:\oxygine-sound\dependencies\openalext\lib\android\libopenal.a(alDatabuffer.o)
                              D:\oxygine-sound\dependencies\openalext\lib\android\libopenal.a(ALc.o) (ReleaseALDatabuffers)
D:\oxygine-sound\dependencies\openalext\lib\android\libopenal.a(alEffect.o)
                              D:\oxygine-sound\dependencies\openalext\lib\android\libopenal.a(ALc.o) (alGenEffects)
D:\oxygine-sound\dependencies\openalext\lib\android\libopenal.a(alExtension.o)
                              D:\oxygine-sound\dependencies\openalext\lib\android\libopenal.a(ALc.o) (alIsExtensionPresent)
D:\oxygine-sound\dependencies\openalext\lib\android\libopenal.a(alFilter.o)
                              D:\oxygine-sound\dependencies\openalext\lib\android\libopenal.a(ALc.o) (alGenFilters)
D:\oxygine-sound\dependencies\openalext\lib\android\libopenal.a(alListener.o)
                              D:\oxygine-sound\dependencies\openalext\lib\android\libopenal.a(ALc.o) (alListenerf)
D:\oxygine-sound\dependencies\openalext\lib\android\libopenal.a(alState.o)
                              D:\oxygine-sound\dependencies\openalext\lib\android\libopenal.a(ALc.o) (alEnable)
D:\oxygine-sound\dependencies\openalext\lib\android\libopenal.a(alcEcho.o)
                              D:\oxygine-sound\dependencies\openalext\lib\android\libopenal.a(alAuxEffectSlot.o) (EchoCreate)
D:\oxygine-sound\dependencies\openalext\lib\android\libopenal.a(alcModulator.o)
                              D:\oxygine-sound\dependencies\openalext\lib\android\libopenal.a(alAuxEffectSlot.o) (ModulatorCreate)
D:\oxygine-sound\dependencies\openalext\lib\android\libopenal.a(alcReverb.o)
                              D:\oxygine-sound\dependencies\openalext\lib\android\libopenal.a(alAuxEffectSlot.o) (VerbCreate)
D:\oxygine-sound\dependencies\openalext\lib\android\libopenal.a(alcThread.o)
                              D:\oxygine-sound\dependencies\openalext\lib\android\libopenal.a(null.o) (StartThread)
d:/android/android-ndk-r8e/toolchains/arm-linux-androideabi-4.4.3/prebuilt/windows/bin/../lib/gcc/arm-linux-androideabi/4.4.3\libgcc.a(_udivsi3.o)
                              D:\oxygine-sound\dependencies\openalext\lib\android\libopenal.a(alBuffer.o) (__aeabi_uidiv)
d:/android/android-ndk-r8e/toolchains/arm-linux-androideabi-4.4.3/prebuilt/windows/bin/../lib/gcc/arm-linux-androideabi/4.4.3\libgcc.a(_divsi3.o)
                              D:\oxygine-sound\dependencies\openalext\lib\android\libopenal.a(alBuffer.o) (__aeabi_idiv)
d:/android/android-ndk-r8e/toolchains/arm-linux-androideabi-4.4.3/prebuilt/windows/bin/../lib/gcc/arm-linux-androideabi/4.4.3\libgcc.a(_aeabi_ldivmod.o)
                              D:\oxygine-sound\dependencies\openalext\lib\android\libopenal.a(mixer.o) (__aeabi_ldivmod)
d:/android/android-ndk-r8e/toolchains/arm-linux-androideabi-4.4.3/prebuilt/windows/bin/../lib/gcc/arm-linux-androideabi/4.4.3\libgcc.a(_aeabi_uldivmod.o)
                              D:\oxygine-sound\dependencies\openalext\lib\android\libopenal.a(alBuffer.o) (__aeabi_uldivmod)
d:/android/android-ndk-r8e/toolchains/arm-linux-androideabi-4.4.3/prebuilt/windows/bin/../lib/gcc/arm-linux-androideabi/4.4.3\libgcc.a(_dvmd_lnx.o)
                              d:/android/android-ndk-r8e/toolchains/arm-linux-androideabi-4.4.3/prebuilt/windows/bin/../lib/gcc/arm-linux-androideabi/4.4.3\libgcc.a(_udivsi3.o) (__div0)
d:/android/android-ndk-r8e/toolchains/arm-linux-androideabi-4.4.3/prebuilt/windows/bin/../lib/gcc/arm-linux-androideabi/4.4.3\libgcc.a(bpabi.o)
                              d:/android/android-ndk-r8e/toolchains/arm-linux-androideabi-4.4.3/prebuilt/windows/bin/../lib/gcc/arm-linux-androideabi/4.4.3\libgcc.a(_aeabi_uldivmod.o) (__gnu_uldivmod_helper)
d:/android/android-ndk-r8e/toolchains/arm-linux-androideabi-4.4.3/prebuilt/windows/bin/../lib/gcc/arm-linux-androideabi/4.4.3\libgcc.a(unwind-arm.o)
                              D:\oxygine-sound\dependencies\openalext\lib\android\libopenal.a(android.o) (__aeabi_unwind_cpp_pr0)
d:/android/android-ndk-r8e/toolchains/arm-linux-androideabi-4.4.3/prebuilt/windows/bin/../lib/gcc/arm-linux-androideabi/4.4.3\libgcc.a(libunwind.o)
                              d:/android/android-ndk-r8e/toolchains/arm-linux-androideabi-4.4.3/prebuilt/windows/bin/../lib/gcc/arm-linux-androideabi/4.4.3\libgcc.a(unwind-arm.o) (restore_core_regs)
d:/android/android-ndk-r8e/toolchains/arm-linux-androideabi-4.4.3/prebuilt/windows/bin/../lib/gcc/arm-linux-androideabi/4.4.3\libgcc.a(pr-support.o)
                              d:/android/android-ndk-r8e/toolchains/arm-linux-androideabi-4.4.3/prebuilt/windows/bin/../lib/gcc/arm-linux-androideabi/4.4.3\libgcc.a(unwind-arm.o) (__gnu_unwind_execute)
d:/android/android-ndk-r8e/toolchains/arm-linux-androideabi-4.4.3/prebuilt/windows/bin/../lib/gcc/arm-linux-androideabi/4.4.3\libgcc.a(_divdi3.o)
                              d:/android/android-ndk-r8e/toolchains/arm-linux-androideabi-4.4.3/prebuilt/windows/bin/../lib/gcc/arm-linux-androideabi/4.4.3\libgcc.a(bpabi.o) (__divdi3)
d:/android/android-ndk-r8e/toolchains/arm-linux-androideabi-4.4.3/prebuilt/windows/bin/../lib/gcc/arm-linux-androideabi/4.4.3\libgcc.a(_udivdi3.o)
                              d:/android/android-ndk-r8e/toolchains/arm-linux-androideabi-4.4.3/prebuilt/windows/bin/../lib/gcc/arm-linux-androideabi/4.4.3\libgcc.a(bpabi.o) (__udivdi3)

Allocating common symbols
Common symbol       size              file

apportableOpenALFuncs
                    0xc               D:\oxygine-sound\dependencies\openalext\lib\android\libopenal.a(android.o)
DisabledEffects     0x4               D:\oxygine-sound\dependencies\openalext\lib\android\libopenal.a(alEffect.o)
DefaultResampler    0x4               D:\oxygine-sound\dependencies\openalext\lib\android\libopenal.a(alSource.o)

Discarded input sections

 .text          0x00000000        0x0 d:/android/android-ndk-r8e/platforms/android-9/arch-arm/usr/lib/crtbegin_so.o
 .bss           0x00000000        0x0 d:/android/android-ndk-r8e/platforms/android-9/arch-arm/usr/lib/crtbegin_so.o
 .note.GNU-stack
                0x00000000        0x0 d:/android/android-ndk-r8e/platforms/android-9/arch-arm/usr/lib/crtbegin_so.o
 .text          0x00000000        0x0 release\openalext_platform.os
 .data          0x00000000        0x0 release\openalext_platform.os
 .bss           0x00000000        0x0 release\openalext_platform.os
 .note.GNU-stack
                0x00000000        0x0 release\openalext_platform.os
 .text          0x00000000        0x0 release\openalext.os
 .data          0x00000000        0x0 release\openalext.os
 .bss           0x00000000        0x0 release\openalext.os
 .note.GNU-stack
                0x00000000        0x0 release\openalext.os
 .text          0x00000000        0x0 release\openalext_register.os
 .data          0x00000000        0x0 release\openalext_register.os
 .bss           0x00000000        0x0 release\openalext_register.os
 .text._Z20openalextRegisterExtv
                0x00000000        0x0 release\openalext_register.os
 .note.GNU-stack
                0x00000000        0x0 release\openalext_register.os
 .text          0x00000000        0x0 D:\oxygine-sound\dependencies\openalext\lib\android\libopenal.a(android.o)
 .data          0x00000000        0x0 D:\oxygine-sound\dependencies\openalext\lib\android\libopenal.a(android.o)
 .ARM.extab.text.alcGetJavaVM
                0x00000000        0x0 D:\oxygine-sound\dependencies\openalext\lib\android\libopenal.a(android.o)
 .ARM.extab.text.JNI_OnLoad
                0x00000000        0x0 D:\oxygine-sound\dependencies\openalext\lib\android\libopenal.a(android.o)
 .note.GNU-stack
                0x00000000        0x0 D:\oxygine-sound\dependencies\openalext\lib\android\libopenal.a(android.o)
 .text          0x00000000        0x0 D:\oxygine-sound\dependencies\openalext\lib\android\libopenal.a(alBuffer.o)
 .data          0x00000000        0x0 D:\oxygine-sound\dependencies\openalext\lib\android\libopenal.a(alBuffer.o)
 .bss           0x00000000        0x0 D:\oxygine-sound\dependencies\openalext\lib\android\libopenal.a(alBuffer.o)
 .ARM.extab.text.Convert_ALfp_IMA4
                0x00000000        0x0 D:\oxygine-sound\dependencies\openalext\lib\android\libopenal.a(alBuffer.o)
 .ARM.extab.text.ConvertData
                0x00000000        0x0 D:\oxygine-sound\dependencies\openalext\lib\android\libopenal.a(alBuffer.o)
 .ARM.extab.text.Convert_ALubyte_IMA4
                0x00000000        0x0 D:\oxygine-sound\dependencies\openalext\lib\android\libopenal.a(alBuffer.o)
 .ARM.extab.text.Convert_ALshort_IMA4
                0x00000000        0x0 D:\oxygine-sound\dependencies\openalext\lib\android\libopenal.a(alBuffer.o)
 .ARM.extab.text.alGenBuffers
                0x00000000        0x0 D:\oxygine-sound\dependencies\openalext\lib\android\libopenal.a(alBuffer.o)
 .ARM.extab.text.alIsBuffer
                0x00000000        0x0 D:\oxygine-sound\dependencies\openalext\lib\android\libopenal.a(alBuffer.o)
 .ARM.extab.text.alBufferf
                0x00000000        0x0 D:\oxygine-sound\dependencies\openalext\lib\android\libopenal.a(alBuffer.o)
 .ARM.extab.text.alBuffer3f
                0x00000000        0x0 D:\oxygine-sound\dependencies\openalext\lib\android\libopenal.a(alBuffer.o)
 .ARM.extab.text.alBufferfv
                0x00000000        0x0 D:\oxygine-sound\dependencies\openalext\lib\android\libopenal.a(alBuffer.o)
 .ARM.extab.text.alBufferi
                0x00000000        0x0 D:\oxygine-sound\dependencies\openalext\lib\android\libopenal.a(alBuffer.o)
 .ARM.extab.text.alBuffer3i
                0x00000000        0x0 D:\oxygine-sound\dependencies\openalext\lib\android\libopenal.a(alBuffer.o)
 .ARM.extab.text.alGetBufferf
                0x00000000        0x0 D:\oxygine-sound\dependencies\openalext\lib\android\libopenal.a(alBuffer.o)
 .ARM.extab.text.alGetBuffer3f
                0x00000000        0x0 D:\oxygine-sound\dependencies\openalext\lib\android\libopenal.a(alBuffer.o)
 .ARM.extab.text.alGetBufferfv
                0x00000000        0x0 D:\oxygine-sound\dependencies\openalext\lib\android\libopenal.a(alBuffer.o)
 .ARM.extab.text.alGetBuffer3i
                0x00000000        0x0 D:\oxygine-sound\dependencies\openalext\lib\android\libopenal.a(alBuffer.o)
 .ARM.extab.text.BytesFromUserFmt
                0x00000000        0x0 D:\oxygine-sound\dependencies\openalext\lib\android\libopenal.a(alBuffer.o)
 .ARM.extab.text.ChannelsFromUserFmt
                0x00000000        0x0 D:\oxygine-sound\dependencies\openalext\lib\android\libopenal.a(alBuffer.o)
 .ARM.extab.text.DecomposeUserFormat
                0x00000000        0x0 D:\oxygine-sound\dependencies\openalext\lib\android\libopenal.a(alBuffer.o)
 .ARM.extab.text.BytesFromFmt
                0x00000000        0x0 D:\oxygine-sound\dependencies\openalext\lib\android\libopenal.a(alBuffer.o)
 .ARM.extab.text.ChannelsFromFmt
                0x00000000        0x0 D:\oxygine-sound\dependencies\openalext\lib\android\libopenal.a(alBuffer.o)
 .ARM.extab.text.alGetBufferi
                0x00000000        0x0 D:\oxygine-sound\dependencies\openalext\lib\android\libopenal.a(alBuffer.o)
 .ARM.extab.text.alBufferSubDataSOFT
                0x00000000        0x0 D:\oxygine-sound\dependencies\openalext\lib\android\libopenal.a(alBuffer.o)
 .ARM.extab.text.DecomposeFormat
                0x00000000        0x0 D:\oxygine-sound\dependencies\openalext\lib\android\libopenal.a(alBuffer.o)
 .ARM.extab.text.alBufferData
                0x00000000        0x0 D:\oxygine-sound\dependencies\openalext\lib\android\libopenal.a(alBuffer.o)
 .ARM.extab.text.ReleaseALBuffers
                0x00000000        0x0 D:\oxygine-sound\dependencies\openalext\lib\android\libopenal.a(alBuffer.o)
 .note.GNU-stack
                0x00000000        0x0 D:\oxygine-sound\dependencies\openalext\lib\android\libopenal.a(alBuffer.o)
 .text          0x00000000        0x0 D:\oxygine-sound\dependencies\openalext\lib\android\libopenal.a(alError.o)
 .data          0x00000000        0x0 D:\oxygine-sound\dependencies\openalext\lib\android\libopenal.a(alError.o)
 .bss           0x00000000        0x0 D:\oxygine-sound\dependencies\openalext\lib\android\libopenal.a(alError.o)
 .ARM.extab.text.alGetError
                0x00000000        0x0 D:\oxygine-sound\dependencies\openalext\lib\android\libopenal.a(alError.o)
 .ARM.extab.text.alSetError
                0x00000000        0x0 D:\oxygine-sound\dependencies\openalext\lib\android\libopenal.a(alError.o)
 .note.GNU-stack
                0x00000000        0x0 D:\oxygine-sound\dependencies\openalext\lib\android\libopenal.a(alError.o)
 .text          0x00000000        0x0 D:\oxygine-sound\dependencies\openalext\lib\android\libopenal.a(alSource.o)
 .data          0x00000000        0x0 D:\oxygine-sound\dependencies\openalext\lib\android\libopenal.a(alSource.o)
 .bss           0x00000000        0x0 D:\oxygine-sound\dependencies\openalext\lib\android\libopenal.a(alSource.o)
 .ARM.extab.text.alGenSources
                0x00000000        0x0 D:\oxygine-sound\dependencies\openalext\lib\android\libopenal.a(alSource.o)
 .ARM.extab.text.alDeleteSources
                0x00000000        0x0 D:\oxygine-sound\dependencies\openalext\lib\android\libopenal.a(alSource.o)
 .ARM.extab.text.alIsSource
                0x00000000        0x0 D:\oxygine-sound\dependencies\openalext\lib\android\libopenal.a(alSource.o)
 .ARM.extab.text.alSourcefv
                0x00000000        0x0 D:\oxygine-sound\dependencies\openalext\lib\android\libopenal.a(alSource.o)
 .ARM.extab.text.alSource3i
                0x00000000        0x0 D:\oxygine-sound\dependencies\openalext\lib\android\libopenal.a(alSource.o)
 .ARM.extab.text.alSourceiv
                0x00000000        0x0 D:\oxygine-sound\dependencies\openalext\lib\android\libopenal.a(alSource.o)
 .ARM.extab.text.alGetSourcef
                0x00000000        0x0 D:\oxygine-sound\dependencies\openalext\lib\android\libopenal.a(alSource.o)
 .ARM.extab.text.alGetSourcei
                0x00000000        0x0 D:\oxygine-sound\dependencies\openalext\lib\android\libopenal.a(alSource.o)
 .ARM.extab.text.alGetSourceiv
                0x00000000        0x0 D:\oxygine-sound\dependencies\openalext\lib\android\libopenal.a(alSource.o)
 .ARM.extab.text.alSourcePause
                0x00000000        0x0 D:\oxygine-sound\dependencies\openalext\lib\android\libopenal.a(alSource.o)
 .ARM.extab.text.alSourceStop
                0x00000000        0x0 D:\oxygine-sound\dependencies\openalext\lib\android\libopenal.a(alSource.o)
 .ARM.extab.text.alSourceRewind
                0x00000000        0x0 D:\oxygine-sound\dependencies\openalext\lib\android\libopenal.a(alSource.o)
 .ARM.extab.text.alSourceQueueBuffers
                0x00000000        0x0 D:\oxygine-sound\dependencies\openalext\lib\android\libopenal.a(alSource.o)
 .ARM.extab.text.ReleaseALSources
                0x00000000        0x0 D:\oxygine-sound\dependencies\openalext\lib\android\libopenal.a(alSource.o)
 .note.GNU-stack
                0x00000000        0x0 D:\oxygine-sound\dependencies\openalext\lib\android\libopenal.a(alSource.o)
 .text          0x00000000        0x0 D:\oxygine-sound\dependencies\openalext\lib\android\libopenal.a(ALc.o)
 .ARM.extab.text.startup.alc_init
                0x00000000        0x0 D:\oxygine-sound\dependencies\openalext\lib\android\libopenal.a(ALc.o)
 .ARM.extab.text.AppendAllDeviceList
                0x00000000        0x0 D:\oxygine-sound\dependencies\openalext\lib\android\libopenal.a(ALc.o)
 .ARM.extab.text.AppendDeviceList
                0x00000000        0x0 D:\oxygine-sound\dependencies\openalext\lib\android\libopenal.a(ALc.o)
 .ARM.extab.text.AppendCaptureDeviceList
                0x00000000        0x0 D:\oxygine-sound\dependencies\openalext\lib\android\libopenal.a(ALc.o)
 .ARM.extab.text.SetRTPriority
                0x00000000        0x0 D:\oxygine-sound\dependencies\openalext\lib\android\libopenal.a(ALc.o)
 .ARM.extab.text.InitUIntMap
                0x00000000        0x0 D:\oxygine-sound\dependencies\openalext\lib\android\libopenal.a(ALc.o)
 .ARM.extab.text.ResetUIntMap
                0x00000000        0x0 D:\oxygine-sound\dependencies\openalext\lib\android\libopenal.a(ALc.o)
 .ARM.extab.text.InsertUIntMapEntry
                0x00000000        0x0 D:\oxygine-sound\dependencies\openalext\lib\android\libopenal.a(ALc.o)
 .ARM.extab.text.RemoveUIntMapKey
                0x00000000        0x0 D:\oxygine-sound\dependencies\openalext\lib\android\libopenal.a(ALc.o)
 .ARM.extab.text.LookupUIntMapKey
                0x00000000        0x0 D:\oxygine-sound\dependencies\openalext\lib\android\libopenal.a(ALc.o)
 .ARM.extab.text.BytesFromDevFmt
                0x00000000        0x0 D:\oxygine-sound\dependencies\openalext\lib\android\libopenal.a(ALc.o)
 .ARM.extab.text.ChannelsFromDevFmt
                0x00000000        0x0 D:\oxygine-sound\dependencies\openalext\lib\android\libopenal.a(ALc.o)
 .ARM.extab.text.DecomposeDevFormat
                0x00000000        0x0 D:\oxygine-sound\dependencies\openalext\lib\android\libopenal.a(ALc.o)
 .ARM.extab.text.SuspendContext
                0x00000000        0x0 D:\oxygine-sound\dependencies\openalext\lib\android\libopenal.a(ALc.o)
 .ARM.extab.text.ProcessContext
                0x00000000        0x0 D:\oxygine-sound\dependencies\openalext\lib\android\libopenal.a(ALc.o)
 .ARM.extab.text.alcProcessContext
                0x00000000        0x0 D:\oxygine-sound\dependencies\openalext\lib\android\libopenal.a(ALc.o)
 .ARM.extab.text.alcSuspendContext
                0x00000000        0x0 D:\oxygine-sound\dependencies\openalext\lib\android\libopenal.a(ALc.o)
 .ARM.extab.text.alcGetThreadContext
                0x00000000        0x0 D:\oxygine-sound\dependencies\openalext\lib\android\libopenal.a(ALc.o)
 .ARM.extab.text.alcGetError
                0x00000000        0x0 D:\oxygine-sound\dependencies\openalext\lib\android\libopenal.a(ALc.o)
 .ARM.extab.text.alcSetError
                0x00000000        0x0 D:\oxygine-sound\dependencies\openalext\lib\android\libopenal.a(ALc.o)
 .ARM.extab.text.alcGetEnumValue
                0x00000000        0x0 D:\oxygine-sound\dependencies\openalext\lib\android\libopenal.a(ALc.o)
 .ARM.extab.text.alcGetProcAddress
                0x00000000        0x0 D:\oxygine-sound\dependencies\openalext\lib\android\libopenal.a(ALc.o)
 .ARM.extab.text.alcDestroyContext
                0x00000000        0x0 D:\oxygine-sound\dependencies\openalext\lib\android\libopenal.a(ALc.o)
 .ARM.extab.text.alcSetThreadContext
                0x00000000        0x0 D:\oxygine-sound\dependencies\openalext\lib\android\libopenal.a(ALc.o)
 .ARM.extab.text.alcMakeContextCurrent
                0x00000000        0x0 D:\oxygine-sound\dependencies\openalext\lib\android\libopenal.a(ALc.o)
 .ARM.extab.text.alcGetContextsDevice
                0x00000000        0x0 D:\oxygine-sound\dependencies\openalext\lib\android\libopenal.a(ALc.o)
 .ARM.extab.text.alcCaptureCloseDevice
                0x00000000        0x0 D:\oxygine-sound\dependencies\openalext\lib\android\libopenal.a(ALc.o)
 .ARM.extab.text.alcCaptureOpenDevice
                0x00000000        0x0 D:\oxygine-sound\dependencies\openalext\lib\android\libopenal.a(ALc.o)
 .ARM.extab.text.alcCreateContext
                0x00000000        0x0 D:\oxygine-sound\dependencies\openalext\lib\android\libopenal.a(ALc.o)
 .ARM.extab.text.alcCaptureSamples
                0x00000000        0x0 D:\oxygine-sound\dependencies\openalext\lib\android\libopenal.a(ALc.o)
 .ARM.extab.text.alcCaptureStop
                0x00000000        0x0 D:\oxygine-sound\dependencies\openalext\lib\android\libopenal.a(ALc.o)
 .ARM.extab.text.alcCaptureStart
                0x00000000        0x0 D:\oxygine-sound\dependencies\openalext\lib\android\libopenal.a(ALc.o)
 .ARM.extab.text.alcIsExtensionPresent
                0x00000000        0x0 D:\oxygine-sound\dependencies\openalext\lib\android\libopenal.a(ALc.o)
 .ARM.extab.text.exit.alc_deinit
                0x00000000        0x0 D:\oxygine-sound\dependencies\openalext\lib\android\libopenal.a(ALc.o)
 .ARM.extab.text.alcCloseDevice
                0x00000000        0x0 D:\oxygine-sound\dependencies\openalext\lib\android\libopenal.a(ALc.o)
 .ARM.extab.text.alcGetString
                0x00000000        0x0 D:\oxygine-sound\dependencies\openalext\lib\android\libopenal.a(ALc.o)
 .ARM.extab.text.alcGetIntegerv
                0x00000000        0x0 D:\oxygine-sound\dependencies\openalext\lib\android\libopenal.a(ALc.o)
 .ARM.extab.text.GetContextSuspended
                0x00000000        0x0 D:\oxygine-sound\dependencies\openalext\lib\android\libopenal.a(ALc.o)
 .ARM.extab.text.alcGetCurrentContext
                0x00000000        0x0 D:\oxygine-sound\dependencies\openalext\lib\android\libopenal.a(ALc.o)
 .ARM.extab.text.SetDefaultChannelOrder
                0x00000000        0x0 D:\oxygine-sound\dependencies\openalext\lib\android\libopenal.a(ALc.o)
 .ARM.extab.text.SetDefaultWFXChannelOrder
                0x00000000        0x0 D:\oxygine-sound\dependencies\openalext\lib\android\libopenal.a(ALc.o)
 .note.GNU-stack
                0x00000000        0x0 D:\oxygine-sound\dependencies\openalext\lib\android\libopenal.a(ALc.o)
 .text          0x00000000        0x0 D:\oxygine-sound\dependencies\openalext\lib\android\libopenal.a(alcConfig.o)
 .data          0x00000000        0x0 D:\oxygine-sound\dependencies\openalext\lib\android\libopenal.a(alcConfig.o)
 .ARM.extab.text.LoadConfigFromFile
                0x00000000        0x0 D:\oxygine-sound\dependencies\openalext\lib\android\libopenal.a(alcConfig.o)
 .ARM.extab.text.ReadALConfig
                0x00000000        0x0 D:\oxygine-sound\dependencies\openalext\lib\android\libopenal.a(alcConfig.o)
 .ARM.extab.text.FreeALConfig
                0x00000000        0x0 D:\oxygine-sound\dependencies\openalext\lib\android\libopenal.a(alcConfig.o)
 .ARM.extab.text.GetConfigValue
                0x00000000        0x0 D:\oxygine-sound\dependencies\openalext\lib\android\libopenal.a(alcConfig.o)
 .ARM.extab.text.GetConfigValueInt
                0x00000000        0x0 D:\oxygine-sound\dependencies\openalext\lib\android\libopenal.a(alcConfig.o)
 .ARM.extab.text.GetConfigValueBool
                0x00000000        0x0 D:\oxygine-sound\dependencies\openalext\lib\android\libopenal.a(alcConfig.o)
 .note.GNU-stack
                0x00000000        0x0 D:\oxygine-sound\dependencies\openalext\lib\android\libopenal.a(alcConfig.o)
 .text          0x00000000        0x0 D:\oxygine-sound\dependencies\openalext\lib\android\libopenal.a(ALu.o)
 .note.GNU-stack
                0x00000000        0x0 D:\oxygine-sound\dependencies\openalext\lib\android\libopenal.a(ALu.o)
 .text          0x00000000        0x0 D:\oxygine-sound\dependencies\openalext\lib\android\libopenal.a(bs2b.o)
 .data          0x00000000        0x0 D:\oxygine-sound\dependencies\openalext\lib\android\libopenal.a(bs2b.o)
 .bss           0x00000000        0x0 D:\oxygine-sound\dependencies\openalext\lib\android\libopenal.a(bs2b.o)
 .ARM.extab.text.bs2b_set_level
                0x00000000        0x0 D:\oxygine-sound\dependencies\openalext\lib\android\libopenal.a(bs2b.o)
 .ARM.extab.text.bs2b_get_level
                0x00000000        0x0 D:\oxygine-sound\dependencies\openalext\lib\android\libopenal.a(bs2b.o)
 .ARM.extab.text.bs2b_set_srate
                0x00000000        0x0 D:\oxygine-sound\dependencies\openalext\lib\android\libopenal.a(bs2b.o)
 .ARM.extab.text.bs2b_get_srate
                0x00000000        0x0 D:\oxygine-sound\dependencies\openalext\lib\android\libopenal.a(bs2b.o)
 .ARM.extab.text.bs2b_clear
                0x00000000        0x0 D:\oxygine-sound\dependencies\openalext\lib\android\libopenal.a(bs2b.o)
 .ARM.extab.text.bs2b_is_clear
                0x00000000        0x0 D:\oxygine-sound\dependencies\openalext\lib\android\libopenal.a(bs2b.o)
 .ARM.extab.text.bs2b_cross_feed
                0x00000000        0x0 D:\oxygine-sound\dependencies\openalext\lib\android\libopenal.a(bs2b.o)
 .note.GNU-stack
                0x00000000        0x0 D:\oxygine-sound\dependencies\openalext\lib\android\libopenal.a(bs2b.o)
 .text          0x00000000        0x0 D:\oxygine-sound\dependencies\openalext\lib\android\libopenal.a(null.o)
 .data          0x00000000        0x0 D:\oxygine-sound\dependencies\openalext\lib\android\libopenal.a(null.o)
 .ARM.extab.text.null_open_capture
                0x00000000        0x0 D:\oxygine-sound\dependencies\openalext\lib\android\libopenal.a(null.o)
 .ARM.extab.text.null_stop_playback
                0x00000000        0x0 D:\oxygine-sound\dependencies\openalext\lib\android\libopenal.a(null.o)
 .ARM.extab.text.null_close_playback
                0x00000000        0x0 D:\oxygine-sound\dependencies\openalext\lib\android\libopenal.a(null.o)
 .ARM.extab.text.null_open_playback
                0x00000000        0x0 D:\oxygine-sound\dependencies\openalext\lib\android\libopenal.a(null.o)
 .ARM.extab.text.null_reset_playback
                0x00000000        0x0 D:\oxygine-sound\dependencies\openalext\lib\android\libopenal.a(null.o)
 .ARM.extab.text.NullProc
                0x00000000        0x0 D:\oxygine-sound\dependencies\openalext\lib\android\libopenal.a(null.o)
 .ARM.extab.text.alc_null_init
                0x00000000        0x0 D:\oxygine-sound\dependencies\openalext\lib\android\libopenal.a(null.o)
 .ARM.extab.text.alc_null_deinit
                0x00000000        0x0 D:\oxygine-sound\dependencies\openalext\lib\android\libopenal.a(null.o)
 .ARM.extab.text.alc_null_probe
                0x00000000        0x0 D:\oxygine-sound\dependencies\openalext\lib\android\libopenal.a(null.o)
 .note.GNU-stack
                0x00000000        0x0 D:\oxygine-sound\dependencies\openalext\lib\android\libopenal.a(null.o)
 .text          0x00000000        0x0 D:\oxygine-sound\dependencies\openalext\lib\android\libopenal.a(panning.o)
 .data          0x00000000        0x0 D:\oxygine-sound\dependencies\openalext\lib\android\libopenal.a(panning.o)
 .bss           0x00000000        0x0 D:\oxygine-sound\dependencies\openalext\lib\android\libopenal.a(panning.o)
 .ARM.extab.text.SetSpeakerArrangement.constprop.0
                0x00000000        0x0 D:\oxygine-sound\dependencies\openalext\lib\android\libopenal.a(panning.o)
 .ARM.extab.text.aluCart2LUTpos
                0x00000000        0x0 D:\oxygine-sound\dependencies\openalext\lib\android\libopenal.a(panning.o)
 .note.GNU-stack
                0x00000000        0x0 D:\oxygine-sound\dependencies\openalext\lib\android\libopenal.a(panning.o)
 .text          0x00000000        0x0 D:\oxygine-sound\dependencies\openalext\lib\android\libopenal.a(mixer.o)
 .data          0x00000000        0x0 D:\oxygine-sound\dependencies\openalext\lib\android\libopenal.a(mixer.o)
 .bss           0x00000000        0x0 D:\oxygine-sound\dependencies\openalext\lib\android\libopenal.a(mixer.o)
 .note.GNU-stack
                0x00000000        0x0 D:\oxygine-sound\dependencies\openalext\lib\android\libopenal.a(mixer.o)
 .text          0x00000000        0x0 D:\oxygine-sound\dependencies\openalext\lib\android\libopenal.a(audiotrack.o)
 .data          0x00000000        0x0 D:\oxygine-sound\dependencies\openalext\lib\android\libopenal.a(audiotrack.o)
 .ARM.extab.text.android_open_capture
                0x00000000        0x0 D:\oxygine-sound\dependencies\openalext\lib\android\libopenal.a(audiotrack.o)
 .ARM.extab.text.android_close_capture
                0x00000000        0x0 D:\oxygine-sound\dependencies\openalext\lib\android\libopenal.a(audiotrack.o)
 .ARM.extab.text.android_start_capture
                0x00000000        0x0 D:\oxygine-sound\dependencies\openalext\lib\android\libopenal.a(audiotrack.o)
 .ARM.extab.text.android_stop_capture
                0x00000000        0x0 D:\oxygine-sound\dependencies\openalext\lib\android\libopenal.a(audiotrack.o)
 .ARM.extab.text.android_capture_samples
                0x00000000        0x0 D:\oxygine-sound\dependencies\openalext\lib\android\libopenal.a(audiotrack.o)
 .ARM.extab.text.android_available_samples
                0x00000000        0x0 D:\oxygine-sound\dependencies\openalext\lib\android\libopenal.a(audiotrack.o)
 .ARM.extab.text.alc_audiotrack_suspend
                0x00000000        0x0 D:\oxygine-sound\dependencies\openalext\lib\android\libopenal.a(audiotrack.o)
 .ARM.extab.text.android_reset_playback
                0x00000000        0x0 D:\oxygine-sound\dependencies\openalext\lib\android\libopenal.a(audiotrack.o)
 .ARM.extab.text.thread_function
                0x00000000        0x0 D:\oxygine-sound\dependencies\openalext\lib\android\libopenal.a(audiotrack.o)
 .ARM.extab.text.android_close_playback
                0x00000000        0x0 D:\oxygine-sound\dependencies\openalext\lib\android\libopenal.a(audiotrack.o)
 .ARM.extab.text.android_open_playback
                0x00000000        0x0 D:\oxygine-sound\dependencies\openalext\lib\android\libopenal.a(audiotrack.o)
 .ARM.extab.text.alc_audiotrack_resume
                0x00000000        0x0 D:\oxygine-sound\dependencies\openalext\lib\android\libopenal.a(audiotrack.o)
 .ARM.extab.text.alc_audiotrack_init
                0x00000000        0x0 D:\oxygine-sound\dependencies\openalext\lib\android\libopenal.a(audiotrack.o)
 .ARM.extab.text.alc_audiotrack_deinit
                0x00000000        0x0 D:\oxygine-sound\dependencies\openalext\lib\android\libopenal.a(audiotrack.o)
 .ARM.extab.text.alc_audiotrack_probe
                0x00000000        0x0 D:\oxygine-sound\dependencies\openalext\lib\android\libopenal.a(audiotrack.o)
 .note.GNU-stack
                0x00000000        0x0 D:\oxygine-sound\dependencies\openalext\lib\android\libopenal.a(audiotrack.o)
 .text          0x00000000        0x0 D:\oxygine-sound\dependencies\openalext\lib\android\libopenal.a(opensles.o)
 .ARM.extab.text.opensles_capture_samples
                0x00000000        0x0 D:\oxygine-sound\dependencies\openalext\lib\android\libopenal.a(opensles.o)
 .ARM.extab.text.opensles_stop_capture
                0x00000000        0x0 D:\oxygine-sound\dependencies\openalext\lib\android\libopenal.a(opensles.o)
 .ARM.extab.text.opensles_start_capture
                0x00000000        0x0 D:\oxygine-sound\dependencies\openalext\lib\android\libopenal.a(opensles.o)
 .ARM.extab.text.opensles_close_capture
                0x00000000        0x0 D:\oxygine-sound\dependencies\openalext\lib\android\libopenal.a(opensles.o)
 .ARM.extab.text.opensles_open_capture
                0x00000000        0x0 D:\oxygine-sound\dependencies\openalext\lib\android\libopenal.a(opensles.o)
 .ARM.extab.text.opensles_stop_playback
                0x00000000        0x0 D:\oxygine-sound\dependencies\openalext\lib\android\libopenal.a(opensles.o)
 .text.suspend_device
                0x00000000        0x0 D:\oxygine-sound\dependencies\openalext\lib\android\libopenal.a(opensles.o)
 .ARM.extab.text.suspend_device
                0x00000000        0x0 D:\oxygine-sound\dependencies\openalext\lib\android\libopenal.a(opensles.o)
 .ARM.exidx.text.suspend_device
                0x00000000        0x0 D:\oxygine-sound\dependencies\openalext\lib\android\libopenal.a(opensles.o)
 .ARM.extab.text.opensles_close_playback
                0x00000000        0x0 D:\oxygine-sound\dependencies\openalext\lib\android\libopenal.a(opensles.o)
 .ARM.extab.text.playback_function
                0x00000000        0x0 D:\oxygine-sound\dependencies\openalext\lib\android\libopenal.a(opensles.o)
 .ARM.extab.text.opensles_callback
                0x00000000        0x0 D:\oxygine-sound\dependencies\openalext\lib\android\libopenal.a(opensles.o)
 .ARM.extab.text.alc_opensles_set_java_vm
                0x00000000        0x0 D:\oxygine-sound\dependencies\openalext\lib\android\libopenal.a(opensles.o)
 .ARM.extab.text.alc_opensles_suspend
                0x00000000        0x0 D:\oxygine-sound\dependencies\openalext\lib\android\libopenal.a(opensles.o)
 .ARM.extab.text.alc_opensles_init_extradata
                0x00000000        0x0 D:\oxygine-sound\dependencies\openalext\lib\android\libopenal.a(opensles.o)
 .ARM.extab.text.opensles_reset_playback
                0x00000000        0x0 D:\oxygine-sound\dependencies\openalext\lib\android\libopenal.a(opensles.o)
 .ARM.extab.text.alc_opensles_resume
                0x00000000        0x0 D:\oxygine-sound\dependencies\openalext\lib\android\libopenal.a(opensles.o)
 .text.resume_device
                0x00000000        0x0 D:\oxygine-sound\dependencies\openalext\lib\android\libopenal.a(opensles.o)
 .ARM.extab.text.resume_device
                0x00000000        0x0 D:\oxygine-sound\dependencies\openalext\lib\android\libopenal.a(opensles.o)
 .ARM.exidx.text.resume_device
                0x00000000        0x0 D:\oxygine-sound\dependencies\openalext\lib\android\libopenal.a(opensles.o)
 .ARM.extab.text.alc_opensles_create_native_audio_engine
                0x00000000        0x0 D:\oxygine-sound\dependencies\openalext\lib\android\libopenal.a(opensles.o)
 .ARM.extab.text.alc_opensles_init
                0x00000000        0x0 D:\oxygine-sound\dependencies\openalext\lib\android\libopenal.a(opensles.o)
 .ARM.extab.text.alc_opensles_deinit
                0x00000000        0x0 D:\oxygine-sound\dependencies\openalext\lib\android\libopenal.a(opensles.o)
 .ARM.extab.text.alc_opensles_probe
                0x00000000        0x0 D:\oxygine-sound\dependencies\openalext\lib\android\libopenal.a(opensles.o)
 .ARM.extab.text.opensles_open_playback
                0x00000000        0x0 D:\oxygine-sound\dependencies\openalext\lib\android\libopenal.a(opensles.o)
 .note.GNU-stack
                0x00000000        0x0 D:\oxygine-sound\dependencies\openalext\lib\android\libopenal.a(opensles.o)
 .text          0x00000000        0x0 D:\oxygine-sound\dependencies\openalext\lib\android\libopenal.a(alAuxEffectSlot.o)
 .data          0x00000000        0x0 D:\oxygine-sound\dependencies\openalext\lib\android\libopenal.a(alAuxEffectSlot.o)
 .bss           0x00000000        0x0 D:\oxygine-sound\dependencies\openalext\lib\android\libopenal.a(alAuxEffectSlot.o)
 .ARM.extab.text.NoneDeviceUpdate
                0x00000000        0x0 D:\oxygine-sound\dependencies\openalext\lib\android\libopenal.a(alAuxEffectSlot.o)
 .ARM.extab.text.NoneUpdate
                0x00000000        0x0 D:\oxygine-sound\dependencies\openalext\lib\android\libopenal.a(alAuxEffectSlot.o)
 .ARM.extab.text.NoneProcess
                0x00000000        0x0 D:\oxygine-sound\dependencies\openalext\lib\android\libopenal.a(alAuxEffectSlot.o)
 .ARM.extab.text.NoneDestroy
                0x00000000        0x0 D:\oxygine-sound\dependencies\openalext\lib\android\libopenal.a(alAuxEffectSlot.o)
 .ARM.extab.text.alDeleteAuxiliaryEffectSlots
                0x00000000        0x0 D:\oxygine-sound\dependencies\openalext\lib\android\libopenal.a(alAuxEffectSlot.o)
 .ARM.extab.text.alIsAuxiliaryEffectSlot
                0x00000000        0x0 D:\oxygine-sound\dependencies\openalext\lib\android\libopenal.a(alAuxEffectSlot.o)
 .ARM.extab.text.alAuxiliaryEffectSlotf
                0x00000000        0x0 D:\oxygine-sound\dependencies\openalext\lib\android\libopenal.a(alAuxEffectSlot.o)
 .ARM.extab.text.alGetAuxiliaryEffectSloti
                0x00000000        0x0 D:\oxygine-sound\dependencies\openalext\lib\android\libopenal.a(alAuxEffectSlot.o)
 .ARM.extab.text.alGetAuxiliaryEffectSlotiv
                0x00000000        0x0 D:\oxygine-sound\dependencies\openalext\lib\android\libopenal.a(alAuxEffectSlot.o)
 .ARM.extab.text.alGetAuxiliaryEffectSlotf
                0x00000000        0x0 D:\oxygine-sound\dependencies\openalext\lib\android\libopenal.a(alAuxEffectSlot.o)
 .ARM.extab.text.alGetAuxiliaryEffectSlotfv
                0x00000000        0x0 D:\oxygine-sound\dependencies\openalext\lib\android\libopenal.a(alAuxEffectSlot.o)
 .ARM.extab.text.alAuxiliaryEffectSloti
                0x00000000        0x0 D:\oxygine-sound\dependencies\openalext\lib\android\libopenal.a(alAuxEffectSlot.o)
 .ARM.extab.text.alAuxiliaryEffectSlotiv
                0x00000000        0x0 D:\oxygine-sound\dependencies\openalext\lib\android\libopenal.a(alAuxEffectSlot.o)
 .ARM.extab.text.alGenAuxiliaryEffectSlots
                0x00000000        0x0 D:\oxygine-sound\dependencies\openalext\lib\android\libopenal.a(alAuxEffectSlot.o)
 .ARM.extab.text.ReleaseALAuxiliaryEffectSlots
                0x00000000        0x0 D:\oxygine-sound\dependencies\openalext\lib\android\libopenal.a(alAuxEffectSlot.o)
 .note.GNU-stack
                0x00000000        0x0 D:\oxygine-sound\dependencies\openalext\lib\android\libopenal.a(alAuxEffectSlot.o)
 .text          0x00000000        0x0 D:\oxygine-sound\dependencies\openalext\lib\android\libopenal.a(alDatabuffer.o)
 .data          0x00000000        0x0 D:\oxygine-sound\dependencies\openalext\lib\android\libopenal.a(alDatabuffer.o)
 .bss           0x00000000        0x0 D:\oxygine-sound\dependencies\openalext\lib\android\libopenal.a(alDatabuffer.o)
 .ARM.extab.text.alGenDatabuffersEXT
                0x00000000        0x0 D:\oxygine-sound\dependencies\openalext\lib\android\libopenal.a(alDatabuffer.o)
 .ARM.extab.text.alDeleteDatabuffersEXT
                0x00000000        0x0 D:\oxygine-sound\dependencies\openalext\lib\android\libopenal.a(alDatabuffer.o)
 .ARM.extab.text.alIsDatabufferEXT
                0x00000000        0x0 D:\oxygine-sound\dependencies\openalext\lib\android\libopenal.a(alDatabuffer.o)
 .ARM.extab.text.alDatabufferDataEXT
                0x00000000        0x0 D:\oxygine-sound\dependencies\openalext\lib\android\libopenal.a(alDatabuffer.o)
 .ARM.extab.text.alDatabufferSubDataEXT
                0x00000000        0x0 D:\oxygine-sound\dependencies\openalext\lib\android\libopenal.a(alDatabuffer.o)
 .ARM.extab.text.alGetDatabufferSubDataEXT
                0x00000000        0x0 D:\oxygine-sound\dependencies\openalext\lib\android\libopenal.a(alDatabuffer.o)
 .ARM.extab.text.alDatabufferfEXT
                0x00000000        0x0 D:\oxygine-sound\dependencies\openalext\lib\android\libopenal.a(alDatabuffer.o)
 .ARM.extab.text.alDatabufferfvEXT
                0x00000000        0x0 D:\oxygine-sound\dependencies\openalext\lib\android\libopenal.a(alDatabuffer.o)
 .ARM.extab.text.alDatabufferiEXT
                0x00000000        0x0 D:\oxygine-sound\dependencies\openalext\lib\android\libopenal.a(alDatabuffer.o)
 .ARM.extab.text.alDatabufferivEXT
                0x00000000        0x0 D:\oxygine-sound\dependencies\openalext\lib\android\libopenal.a(alDatabuffer.o)
 .ARM.extab.text.alGetDatabufferfEXT
                0x00000000        0x0 D:\oxygine-sound\dependencies\openalext\lib\android\libopenal.a(alDatabuffer.o)
 .ARM.extab.text.alGetDatabufferfvEXT
                0x00000000        0x0 D:\oxygine-sound\dependencies\openalext\lib\android\libopenal.a(alDatabuffer.o)
 .ARM.extab.text.alGetDatabufferiEXT
                0x00000000        0x0 D:\oxygine-sound\dependencies\openalext\lib\android\libopenal.a(alDatabuffer.o)
 .ARM.extab.text.alGetDatabufferivEXT
                0x00000000        0x0 D:\oxygine-sound\dependencies\openalext\lib\android\libopenal.a(alDatabuffer.o)
 .ARM.extab.text.alSelectDatabufferEXT
                0x00000000        0x0 D:\oxygine-sound\dependencies\openalext\lib\android\libopenal.a(alDatabuffer.o)
 .ARM.extab.text.alMapDatabufferEXT
                0x00000000        0x0 D:\oxygine-sound\dependencies\openalext\lib\android\libopenal.a(alDatabuffer.o)
 .ARM.extab.text.alUnmapDatabufferEXT
                0x00000000        0x0 D:\oxygine-sound\dependencies\openalext\lib\android\libopenal.a(alDatabuffer.o)
 .ARM.extab.text.ReleaseALDatabuffers
                0x00000000        0x0 D:\oxygine-sound\dependencies\openalext\lib\android\libopenal.a(alDatabuffer.o)
 .note.GNU-stack
                0x00000000        0x0 D:\oxygine-sound\dependencies\openalext\lib\android\libopenal.a(alDatabuffer.o)
 .text          0x00000000        0x0 D:\oxygine-sound\dependencies\openalext\lib\android\libopenal.a(alEffect.o)
 .data          0x00000000        0x0 D:\oxygine-sound\dependencies\openalext\lib\android\libopenal.a(alEffect.o)
 .bss           0x00000000        0x0 D:\oxygine-sound\dependencies\openalext\lib\android\libopenal.a(alEffect.o)
 .ARM.extab.text.alGenEffects
                0x00000000        0x0 D:\oxygine-sound\dependencies\openalext\lib\android\libopenal.a(alEffect.o)
 .ARM.extab.text.alIsEffect
                0x00000000        0x0 D:\oxygine-sound\dependencies\openalext\lib\android\libopenal.a(alEffect.o)
 .ARM.extab.text.alEffectf
                0x00000000        0x0 D:\oxygine-sound\dependencies\openalext\lib\android\libopenal.a(alEffect.o)
 .ARM.extab.text.alEffecti
                0x00000000        0x0 D:\oxygine-sound\dependencies\openalext\lib\android\libopenal.a(alEffect.o)
 .ARM.extab.text.alEffectiv
                0x00000000        0x0 D:\oxygine-sound\dependencies\openalext\lib\android\libopenal.a(alEffect.o)
 .ARM.extab.text.alEffectfv
                0x00000000        0x0 D:\oxygine-sound\dependencies\openalext\lib\android\libopenal.a(alEffect.o)
 .ARM.extab.text.alGetEffecti
                0x00000000        0x0 D:\oxygine-sound\dependencies\openalext\lib\android\libopenal.a(alEffect.o)
 .ARM.extab.text.alGetEffectiv
                0x00000000        0x0 D:\oxygine-sound\dependencies\openalext\lib\android\libopenal.a(alEffect.o)
 .ARM.extab.text.alGetEffectf
                0x00000000        0x0 D:\oxygine-sound\dependencies\openalext\lib\android\libopenal.a(alEffect.o)
 .ARM.extab.text.alGetEffectfv
                0x00000000        0x0 D:\oxygine-sound\dependencies\openalext\lib\android\libopenal.a(alEffect.o)
 .ARM.extab.text.ReleaseALEffects
                0x00000000        0x0 D:\oxygine-sound\dependencies\openalext\lib\android\libopenal.a(alEffect.o)
 .note.GNU-stack
                0x00000000        0x0 D:\oxygine-sound\dependencies\openalext\lib\android\libopenal.a(alEffect.o)
 .text          0x00000000        0x0 D:\oxygine-sound\dependencies\openalext\lib\android\libopenal.a(alExtension.o)
 .data          0x00000000        0x0 D:\oxygine-sound\dependencies\openalext\lib\android\libopenal.a(alExtension.o)
 .bss           0x00000000        0x0 D:\oxygine-sound\dependencies\openalext\lib\android\libopenal.a(alExtension.o)
 .ARM.extab.text.alIsExtensionPresent
                0x00000000        0x0 D:\oxygine-sound\dependencies\openalext\lib\android\libopenal.a(alExtension.o)
 .ARM.extab.text.alGetProcAddress
                0x00000000        0x0 D:\oxygine-sound\dependencies\openalext\lib\android\libopenal.a(alExtension.o)
 .ARM.extab.text.alGetEnumValue
                0x00000000        0x0 D:\oxygine-sound\dependencies\openalext\lib\android\libopenal.a(alExtension.o)
 .note.GNU-stack
                0x00000000        0x0 D:\oxygine-sound\dependencies\openalext\lib\android\libopenal.a(alExtension.o)
 .text          0x00000000        0x0 D:\oxygine-sound\dependencies\openalext\lib\android\libopenal.a(alFilter.o)
 .data          0x00000000        0x0 D:\oxygine-sound\dependencies\openalext\lib\android\libopenal.a(alFilter.o)
 .bss           0x00000000        0x0 D:\oxygine-sound\dependencies\openalext\lib\android\libopenal.a(alFilter.o)
 .ARM.extab.text.alGenFilters
                0x00000000        0x0 D:\oxygine-sound\dependencies\openalext\lib\android\libopenal.a(alFilter.o)
 .ARM.extab.text.alIsFilter
                0x00000000        0x0 D:\oxygine-sound\dependencies\openalext\lib\android\libopenal.a(alFilter.o)
 .ARM.extab.text.alFilteri
                0x00000000        0x0 D:\oxygine-sound\dependencies\openalext\lib\android\libopenal.a(alFilter.o)
 .ARM.extab.text.alFilteriv
                0x00000000        0x0 D:\oxygine-sound\dependencies\openalext\lib\android\libopenal.a(alFilter.o)
 .ARM.extab.text.alFilterf
                0x00000000        0x0 D:\oxygine-sound\dependencies\openalext\lib\android\libopenal.a(alFilter.o)
 .ARM.extab.text.alGetFilteri
                0x00000000        0x0 D:\oxygine-sound\dependencies\openalext\lib\android\libopenal.a(alFilter.o)
 .ARM.extab.text.alGetFilteriv
                0x00000000        0x0 D:\oxygine-sound\dependencies\openalext\lib\android\libopenal.a(alFilter.o)
 .ARM.extab.text.alGetFilterf
                0x00000000        0x0 D:\oxygine-sound\dependencies\openalext\lib\android\libopenal.a(alFilter.o)
 .ARM.extab.text.alGetFilterfv
                0x00000000        0x0 D:\oxygine-sound\dependencies\openalext\lib\android\libopenal.a(alFilter.o)
 .ARM.extab.text.ReleaseALFilters
                0x00000000        0x0 D:\oxygine-sound\dependencies\openalext\lib\android\libopenal.a(alFilter.o)
 .note.GNU-stack
                0x00000000        0x0 D:\oxygine-sound\dependencies\openalext\lib\android\libopenal.a(alFilter.o)
 .text          0x00000000        0x0 D:\oxygine-sound\dependencies\openalext\lib\android\libopenal.a(alListener.o)
 .data          0x00000000        0x0 D:\oxygine-sound\dependencies\openalext\lib\android\libopenal.a(alListener.o)
 .bss           0x00000000        0x0 D:\oxygine-sound\dependencies\openalext\lib\android\libopenal.a(alListener.o)
 .ARM.extab.text.alListener3f
                0x00000000        0x0 D:\oxygine-sound\dependencies\openalext\lib\android\libopenal.a(alListener.o)
 .ARM.extab.text.alListeneri
                0x00000000        0x0 D:\oxygine-sound\dependencies\openalext\lib\android\libopenal.a(alListener.o)
 .ARM.extab.text.alListeneriv
                0x00000000        0x0 D:\oxygine-sound\dependencies\openalext\lib\android\libopenal.a(alListener.o)
 .ARM.extab.text.alGetListenerf
                0x00000000        0x0 D:\oxygine-sound\dependencies\openalext\lib\android\libopenal.a(alListener.o)
 .ARM.extab.text.alGetListener3f
                0x00000000        0x0 D:\oxygine-sound\dependencies\openalext\lib\android\libopenal.a(alListener.o)
 .ARM.extab.text.alGetListenerfv
                0x00000000        0x0 D:\oxygine-sound\dependencies\openalext\lib\android\libopenal.a(alListener.o)
 .ARM.extab.text.alGetListeneri
                0x00000000        0x0 D:\oxygine-sound\dependencies\openalext\lib\android\libopenal.a(alListener.o)
 .ARM.extab.text.alGetListener3i
                0x00000000        0x0 D:\oxygine-sound\dependencies\openalext\lib\android\libopenal.a(alListener.o)
 .ARM.extab.text.alGetListeneriv
                0x00000000        0x0 D:\oxygine-sound\dependencies\openalext\lib\android\libopenal.a(alListener.o)
 .note.GNU-stack
                0x00000000        0x0 D:\oxygine-sound\dependencies\openalext\lib\android\libopenal.a(alListener.o)
 .text          0x00000000        0x0 D:\oxygine-sound\dependencies\openalext\lib\android\libopenal.a(alState.o)
 .data          0x00000000        0x0 D:\oxygine-sound\dependencies\openalext\lib\android\libopenal.a(alState.o)
 .bss           0x00000000        0x0 D:\oxygine-sound\dependencies\openalext\lib\android\libopenal.a(alState.o)
 .ARM.extab.text.alEnable
                0x00000000        0x0 D:\oxygine-sound\dependencies\openalext\lib\android\libopenal.a(alState.o)
 .ARM.extab.text.alDisable
                0x00000000        0x0 D:\oxygine-sound\dependencies\openalext\lib\android\libopenal.a(alState.o)
 .ARM.extab.text.alIsEnabled
                0x00000000        0x0 D:\oxygine-sound\dependencies\openalext\lib\android\libopenal.a(alState.o)
 .ARM.extab.text.alGetBoolean
                0x00000000        0x0 D:\oxygine-sound\dependencies\openalext\lib\android\libopenal.a(alState.o)
 .ARM.extab.text.alGetInteger
                0x00000000        0x0 D:\oxygine-sound\dependencies\openalext\lib\android\libopenal.a(alState.o)
 .ARM.extab.text.alGetBooleanv
                0x00000000        0x0 D:\oxygine-sound\dependencies\openalext\lib\android\libopenal.a(alState.o)
 .ARM.extab.text.alGetDoublev
                0x00000000        0x0 D:\oxygine-sound\dependencies\openalext\lib\android\libopenal.a(alState.o)
 .ARM.extab.text.alGetFloatv
                0x00000000        0x0 D:\oxygine-sound\dependencies\openalext\lib\android\libopenal.a(alState.o)
 .ARM.extab.text.alGetIntegerv
                0x00000000        0x0 D:\oxygine-sound\dependencies\openalext\lib\android\libopenal.a(alState.o)
 .ARM.extab.text.alGetString
                0x00000000        0x0 D:\oxygine-sound\dependencies\openalext\lib\android\libopenal.a(alState.o)
 .ARM.extab.text.alDopplerFactor
                0x00000000        0x0 D:\oxygine-sound\dependencies\openalext\lib\android\libopenal.a(alState.o)
 .ARM.extab.text.alDopplerVelocity
                0x00000000        0x0 D:\oxygine-sound\dependencies\openalext\lib\android\libopenal.a(alState.o)
 .ARM.extab.text.alSpeedOfSound
                0x00000000        0x0 D:\oxygine-sound\dependencies\openalext\lib\android\libopenal.a(alState.o)
 .ARM.extab.text.alDistanceModel
                0x00000000        0x0 D:\oxygine-sound\dependencies\openalext\lib\android\libopenal.a(alState.o)
 .note.GNU-stack
                0x00000000        0x0 D:\oxygine-sound\dependencies\openalext\lib\android\libopenal.a(alState.o)
 .text          0x00000000        0x0 D:\oxygine-sound\dependencies\openalext\lib\android\libopenal.a(alcEcho.o)
 .data          0x00000000        0x0 D:\oxygine-sound\dependencies\openalext\lib\android\libopenal.a(alcEcho.o)
 .bss           0x00000000        0x0 D:\oxygine-sound\dependencies\openalext\lib\android\libopenal.a(alcEcho.o)
 .ARM.extab.text.EchoProcess
                0x00000000        0x0 D:\oxygine-sound\dependencies\openalext\lib\android\libopenal.a(alcEcho.o)
 .ARM.extab.text.EchoDeviceUpdate
                0x00000000        0x0 D:\oxygine-sound\dependencies\openalext\lib\android\libopenal.a(alcEcho.o)
 .ARM.extab.text.EchoDestroy
                0x00000000        0x0 D:\oxygine-sound\dependencies\openalext\lib\android\libopenal.a(alcEcho.o)
 .ARM.extab.text.EchoCreate
                0x00000000        0x0 D:\oxygine-sound\dependencies\openalext\lib\android\libopenal.a(alcEcho.o)
 .note.GNU-stack
                0x00000000        0x0 D:\oxygine-sound\dependencies\openalext\lib\android\libopenal.a(alcEcho.o)
 .text          0x00000000        0x0 D:\oxygine-sound\dependencies\openalext\lib\android\libopenal.a(alcModulator.o)
 .data          0x00000000        0x0 D:\oxygine-sound\dependencies\openalext\lib\android\libopenal.a(alcModulator.o)
 .bss           0x00000000        0x0 D:\oxygine-sound\dependencies\openalext\lib\android\libopenal.a(alcModulator.o)
 .ARM.extab.text.ModulatorDeviceUpdate
                0x00000000        0x0 D:\oxygine-sound\dependencies\openalext\lib\android\libopenal.a(alcModulator.o)
 .ARM.extab.text.ModulatorProcess
                0x00000000        0x0 D:\oxygine-sound\dependencies\openalext\lib\android\libopenal.a(alcModulator.o)
 .ARM.extab.text.ModulatorUpdate
                0x00000000        0x0 D:\oxygine-sound\dependencies\openalext\lib\android\libopenal.a(alcModulator.o)
 .ARM.extab.text.ModulatorDestroy
                0x00000000        0x0 D:\oxygine-sound\dependencies\openalext\lib\android\libopenal.a(alcModulator.o)
 .ARM.extab.text.ModulatorCreate
                0x00000000        0x0 D:\oxygine-sound\dependencies\openalext\lib\android\libopenal.a(alcModulator.o)
 .note.GNU-stack
                0x00000000        0x0 D:\oxygine-sound\dependencies\openalext\lib\android\libopenal.a(alcModulator.o)
 .text          0x00000000        0x0 D:\oxygine-sound\dependencies\openalext\lib\android\libopenal.a(alcReverb.o)
 .data          0x00000000        0x0 D:\oxygine-sound\dependencies\openalext\lib\android\libopenal.a(alcReverb.o)
 .bss           0x00000000        0x0 D:\oxygine-sound\dependencies\openalext\lib\android\libopenal.a(alcReverb.o)
 .ARM.extab.text.AllocLines
                0x00000000        0x0 D:\oxygine-sound\dependencies\openalext\lib\android\libopenal.a(alcReverb.o)
 .ARM.extab.text.VerbDestroy
                0x00000000        0x0 D:\oxygine-sound\dependencies\openalext\lib\android\libopenal.a(alcReverb.o)
 .ARM.extab.text.VerbDeviceUpdate
                0x00000000        0x0 D:\oxygine-sound\dependencies\openalext\lib\android\libopenal.a(alcReverb.o)
 .ARM.extab.text.LateReverb
                0x00000000        0x0 D:\oxygine-sound\dependencies\openalext\lib\android\libopenal.a(alcReverb.o)
 .ARM.extab.text.VerbCreate
                0x00000000        0x0 D:\oxygine-sound\dependencies\openalext\lib\android\libopenal.a(alcReverb.o)
 .note.GNU-stack
                0x00000000        0x0 D:\oxygine-sound\dependencies\openalext\lib\android\libopenal.a(alcReverb.o)
 .text          0x00000000        0x0 D:\oxygine-sound\dependencies\openalext\lib\android\libopenal.a(alcThread.o)
 .data          0x00000000        0x0 D:\oxygine-sound\dependencies\openalext\lib\android\libopenal.a(alcThread.o)
 .bss           0x00000000        0x0 D:\oxygine-sound\dependencies\openalext\lib\android\libopenal.a(alcThread.o)
 .ARM.extab.text.StarterFunc
                0x00000000        0x0 D:\oxygine-sound\dependencies\openalext\lib\android\libopenal.a(alcThread.o)
 .ARM.extab.text.StartThread
                0x00000000        0x0 D:\oxygine-sound\dependencies\openalext\lib\android\libopenal.a(alcThread.o)
 .ARM.extab.text.StopThread
                0x00000000        0x0 D:\oxygine-sound\dependencies\openalext\lib\android\libopenal.a(alcThread.o)
 .note.GNU-stack
                0x00000000        0x0 D:\oxygine-sound\dependencies\openalext\lib\android\libopenal.a(alcThread.o)
 .data          0x00000000        0x0 d:/android/android-ndk-r8e/toolchains/arm-linux-androideabi-4.4.3/prebuilt/windows/bin/../lib/gcc/arm-linux-androideabi/4.4.3\libgcc.a(_udivsi3.o)
 .bss           0x00000000        0x0 d:/android/android-ndk-r8e/toolchains/arm-linux-androideabi-4.4.3/prebuilt/windows/bin/../lib/gcc/arm-linux-androideabi/4.4.3\libgcc.a(_udivsi3.o)
 .note.GNU-stack
                0x00000000        0x0 d:/android/android-ndk-r8e/toolchains/arm-linux-androideabi-4.4.3/prebuilt/windows/bin/../lib/gcc/arm-linux-androideabi/4.4.3\libgcc.a(_udivsi3.o)
 .data          0x00000000        0x0 d:/android/android-ndk-r8e/toolchains/arm-linux-androideabi-4.4.3/prebuilt/windows/bin/../lib/gcc/arm-linux-androideabi/4.4.3\libgcc.a(_divsi3.o)
 .bss           0x00000000        0x0 d:/android/android-ndk-r8e/toolchains/arm-linux-androideabi-4.4.3/prebuilt/windows/bin/../lib/gcc/arm-linux-androideabi/4.4.3\libgcc.a(_divsi3.o)
 .note.GNU-stack
                0x00000000        0x0 d:/android/android-ndk-r8e/toolchains/arm-linux-androideabi-4.4.3/prebuilt/windows/bin/../lib/gcc/arm-linux-androideabi/4.4.3\libgcc.a(_divsi3.o)
 .data          0x00000000        0x0 d:/android/android-ndk-r8e/toolchains/arm-linux-androideabi-4.4.3/prebuilt/windows/bin/../lib/gcc/arm-linux-androideabi/4.4.3\libgcc.a(_aeabi_ldivmod.o)
 .bss           0x00000000        0x0 d:/android/android-ndk-r8e/toolchains/arm-linux-androideabi-4.4.3/prebuilt/windows/bin/../lib/gcc/arm-linux-androideabi/4.4.3\libgcc.a(_aeabi_ldivmod.o)
 .note.GNU-stack
                0x00000000        0x0 d:/android/android-ndk-r8e/toolchains/arm-linux-androideabi-4.4.3/prebuilt/windows/bin/../lib/gcc/arm-linux-androideabi/4.4.3\libgcc.a(_aeabi_ldivmod.o)
 .data          0x00000000        0x0 d:/android/android-ndk-r8e/toolchains/arm-linux-androideabi-4.4.3/prebuilt/windows/bin/../lib/gcc/arm-linux-androideabi/4.4.3\libgcc.a(_aeabi_uldivmod.o)
 .bss           0x00000000        0x0 d:/android/android-ndk-r8e/toolchains/arm-linux-androideabi-4.4.3/prebuilt/windows/bin/../lib/gcc/arm-linux-androideabi/4.4.3\libgcc.a(_aeabi_uldivmod.o)
 .note.GNU-stack
                0x00000000        0x0 d:/android/android-ndk-r8e/toolchains/arm-linux-androideabi-4.4.3/prebuilt/windows/bin/../lib/gcc/arm-linux-androideabi/4.4.3\libgcc.a(_aeabi_uldivmod.o)
 .data          0x00000000        0x0 d:/android/android-ndk-r8e/toolchains/arm-linux-androideabi-4.4.3/prebuilt/windows/bin/../lib/gcc/arm-linux-androideabi/4.4.3\libgcc.a(_dvmd_lnx.o)
 .bss           0x00000000        0x0 d:/android/android-ndk-r8e/toolchains/arm-linux-androideabi-4.4.3/prebuilt/windows/bin/../lib/gcc/arm-linux-androideabi/4.4.3\libgcc.a(_dvmd_lnx.o)
 .note.GNU-stack
                0x00000000        0x0 d:/android/android-ndk-r8e/toolchains/arm-linux-androideabi-4.4.3/prebuilt/windows/bin/../lib/gcc/arm-linux-androideabi/4.4.3\libgcc.a(_dvmd_lnx.o)
 .data          0x00000000        0x0 d:/android/android-ndk-r8e/toolchains/arm-linux-androideabi-4.4.3/prebuilt/windows/bin/../lib/gcc/arm-linux-androideabi/4.4.3\libgcc.a(bpabi.o)
 .bss           0x00000000        0x0 d:/android/android-ndk-r8e/toolchains/arm-linux-androideabi-4.4.3/prebuilt/windows/bin/../lib/gcc/arm-linux-androideabi/4.4.3\libgcc.a(bpabi.o)
 .ARM.extab     0x00000000        0x0 d:/android/android-ndk-r8e/toolchains/arm-linux-androideabi-4.4.3/prebuilt/windows/bin/../lib/gcc/arm-linux-androideabi/4.4.3\libgcc.a(bpabi.o)
 .note.GNU-stack
                0x00000000        0x0 d:/android/android-ndk-r8e/toolchains/arm-linux-androideabi-4.4.3/prebuilt/windows/bin/../lib/gcc/arm-linux-androideabi/4.4.3\libgcc.a(bpabi.o)
 .data          0x00000000        0x0 d:/android/android-ndk-r8e/toolchains/arm-linux-androideabi-4.4.3/prebuilt/windows/bin/../lib/gcc/arm-linux-androideabi/4.4.3\libgcc.a(unwind-arm.o)
 .bss           0x00000000        0x0 d:/android/android-ndk-r8e/toolchains/arm-linux-androideabi-4.4.3/prebuilt/windows/bin/../lib/gcc/arm-linux-androideabi/4.4.3\libgcc.a(unwind-arm.o)
 .note.GNU-stack
                0x00000000        0x0 d:/android/android-ndk-r8e/toolchains/arm-linux-androideabi-4.4.3/prebuilt/windows/bin/../lib/gcc/arm-linux-androideabi/4.4.3\libgcc.a(unwind-arm.o)
 .data          0x00000000        0x0 d:/android/android-ndk-r8e/toolchains/arm-linux-androideabi-4.4.3/prebuilt/windows/bin/../lib/gcc/arm-linux-androideabi/4.4.3\libgcc.a(libunwind.o)
 .bss           0x00000000        0x0 d:/android/android-ndk-r8e/toolchains/arm-linux-androideabi-4.4.3/prebuilt/windows/bin/../lib/gcc/arm-linux-androideabi/4.4.3\libgcc.a(libunwind.o)
 .note.GNU-stack
                0x00000000        0x0 d:/android/android-ndk-r8e/toolchains/arm-linux-androideabi-4.4.3/prebuilt/windows/bin/../lib/gcc/arm-linux-androideabi/4.4.3\libgcc.a(libunwind.o)
 .data          0x00000000        0x0 d:/android/android-ndk-r8e/toolchains/arm-linux-androideabi-4.4.3/prebuilt/windows/bin/../lib/gcc/arm-linux-androideabi/4.4.3\libgcc.a(pr-support.o)
 .bss           0x00000000        0x0 d:/android/android-ndk-r8e/toolchains/arm-linux-androideabi-4.4.3/prebuilt/windows/bin/../lib/gcc/arm-linux-androideabi/4.4.3\libgcc.a(pr-support.o)
 .ARM.extab     0x00000000        0x0 d:/android/android-ndk-r8e/toolchains/arm-linux-androideabi-4.4.3/prebuilt/windows/bin/../lib/gcc/arm-linux-androideabi/4.4.3\libgcc.a(pr-support.o)
 .note.GNU-stack
                0x00000000        0x0 d:/android/android-ndk-r8e/toolchains/arm-linux-androideabi-4.4.3/prebuilt/windows/bin/../lib/gcc/arm-linux-androideabi/4.4.3\libgcc.a(pr-support.o)
 .data          0x00000000        0x0 d:/android/android-ndk-r8e/toolchains/arm-linux-androideabi-4.4.3/prebuilt/windows/bin/../lib/gcc/arm-linux-androideabi/4.4.3\libgcc.a(_divdi3.o)
 .bss           0x00000000        0x0 d:/android/android-ndk-r8e/toolchains/arm-linux-androideabi-4.4.3/prebuilt/windows/bin/../lib/gcc/arm-linux-androideabi/4.4.3\libgcc.a(_divdi3.o)
 .ARM.extab     0x00000000        0x0 d:/android/android-ndk-r8e/toolchains/arm-linux-androideabi-4.4.3/prebuilt/windows/bin/../lib/gcc/arm-linux-androideabi/4.4.3\libgcc.a(_divdi3.o)
 .note.GNU-stack
                0x00000000        0x0 d:/android/android-ndk-r8e/toolchains/arm-linux-androideabi-4.4.3/prebuilt/windows/bin/../lib/gcc/arm-linux-androideabi/4.4.3\libgcc.a(_divdi3.o)
 .data          0x00000000        0x0 d:/android/android-ndk-r8e/toolchains/arm-linux-androideabi-4.4.3/prebuilt/windows/bin/../lib/gcc/arm-linux-androideabi/4.4.3\libgcc.a(_udivdi3.o)
 .bss           0x00000000        0x0 d:/android/android-ndk-r8e/toolchains/arm-linux-androideabi-4.4.3/prebuilt/windows/bin/../lib/gcc/arm-linux-androideabi/4.4.3\libgcc.a(_udivdi3.o)
 .ARM.extab     0x00000000        0x0 d:/android/android-ndk-r8e/toolchains/arm-linux-androideabi-4.4.3/prebuilt/windows/bin/../lib/gcc/arm-linux-androideabi/4.4.3\libgcc.a(_udivdi3.o)
 .note.GNU-stack
                0x00000000        0x0 d:/android/android-ndk-r8e/toolchains/arm-linux-androideabi-4.4.3/prebuilt/windows/bin/../lib/gcc/arm-linux-androideabi/4.4.3\libgcc.a(_udivdi3.o)
 .text          0x00000000        0x0 d:/android/android-ndk-r8e/platforms/android-9/arch-arm/usr/lib/crtend_so.o
 .data          0x00000000        0x0 d:/android/android-ndk-r8e/platforms/android-9/arch-arm/usr/lib/crtend_so.o
 .bss           0x00000000        0x0 d:/android/android-ndk-r8e/platforms/android-9/arch-arm/usr/lib/crtend_so.o
 .note.GNU-stack
                0x00000000        0x0 d:/android/android-ndk-r8e/platforms/android-9/arch-arm/usr/lib/crtend_so.o

Memory Configuration

Name             Origin             Length             Attributes
*default*        0x00000000         0xffffffff

Linker script and memory map

LOAD d:/android/android-ndk-r8e/platforms/android-9/arch-arm/usr/lib/crtbegin_so.o
LOAD release\openalext_platform.os
LOAD release\openalext.os
LOAD release\openalext_register.os
LOAD D:\oxygine-sound\dependencies\openalext\lib\android\libopenal.a
LOAD D:\android\android-ndk-r8e\platforms\android-9\arch-arm\usr\lib/libOpenSLES.so
LOAD D:\marmalade\7.2\s3e\edk\lib\android\libedk.a
LOAD D:\marmalade\7.2\s3e\edk\lib\android/libplaceholderplaceholderplaceholderplaceholderplaceholder.so
LOAD D:\android\android-ndk-r8e\platforms\android-9\arch-arm\usr\lib/liblog.so
LOAD D:\android\android-ndk-r8e\sources\cxx-stl\gnu-libstdc++\4.4.3\libs\armeabi\libgnustl_static.a
LOAD d:/android/android-ndk-r8e/toolchains/arm-linux-androideabi-4.4.3/prebuilt/windows/bin/../lib/gcc/arm-linux-androideabi/4.4.3\libgcc.a
LOAD D:\android\android-ndk-r8e\platforms\android-9\arch-arm\usr\lib/libstdc++.so
LOAD D:\android\android-ndk-r8e\platforms\android-9\arch-arm\usr\lib/libm.so
LOAD D:\android\android-ndk-r8e\platforms\android-9\arch-arm\usr\lib/libc.so
LOAD d:/android/android-ndk-r8e/toolchains/arm-linux-androideabi-4.4.3/prebuilt/windows/bin/../lib/gcc/arm-linux-androideabi/4.4.3\libgcc.a
LOAD D:\android\android-ndk-r8e\platforms\android-9\arch-arm\usr\lib/libc.so
LOAD D:\android\android-ndk-r8e\platforms\android-9\arch-arm\usr\lib/libdl.so
LOAD d:/android/android-ndk-r8e/toolchains/arm-linux-androideabi-4.4.3/prebuilt/windows/bin/../lib/gcc/arm-linux-androideabi/4.4.3\libgcc.a
LOAD d:/android/android-ndk-r8e/platforms/android-9/arch-arm/usr/lib/crtend_so.o
                0x000000f4                . = (0x0 + SIZEOF_HEADERS)

.note.gnu.build-id
 *(.note.gnu.build-id)

.hash           0x000000f4      0xa34
 *(.hash)
 .hash          0x000000f4      0xa34 d:/android/android-ndk-r8e/platforms/android-9/arch-arm/usr/lib/crtbegin_so.o

.gnu.hash
 *(.gnu.hash)

.dynsym         0x00000b28     0x1840
 *(.dynsym)
 .dynsym        0x00000b28     0x1840 d:/android/android-ndk-r8e/platforms/android-9/arch-arm/usr/lib/crtbegin_so.o

.dynstr         0x00002368     0x1758
 *(.dynstr)
 .dynstr        0x00002368     0x1758 d:/android/android-ndk-r8e/platforms/android-9/arch-arm/usr/lib/crtbegin_so.o

.gnu.version    0x00003ac0        0x0
 *(.gnu.version)
 .gnu.version   0x00000000        0x0 d:/android/android-ndk-r8e/platforms/android-9/arch-arm/usr/lib/crtbegin_so.o

.gnu.version_d  0x00003ac0        0x0
 *(.gnu.version_d)
 .gnu.version_d
                0x00000000        0x0 d:/android/android-ndk-r8e/platforms/android-9/arch-arm/usr/lib/crtbegin_so.o

.gnu.version_r  0x00003ac0        0x0
 *(.gnu.version_r)
 .gnu.version_r
                0x00000000        0x0 d:/android/android-ndk-r8e/platforms/android-9/arch-arm/usr/lib/crtbegin_so.o

.rel.dyn        0x00003ac0     0x11a8
 *(.rel.init)
 *(.rel.text .rel.text.* .rel.gnu.linkonce.t.*)
 *(.rel.fini)
 *(.rel.rodata .rel.rodata.* .rel.gnu.linkonce.r.*)
 *(.rel.data.rel.ro* .rel.gnu.linkonce.d.rel.ro.*)
 .rel.data.rel.ro
                0x00003ac0      0x820 d:/android/android-ndk-r8e/platforms/android-9/arch-arm/usr/lib/crtbegin_so.o
 .rel.data.rel.ro.local
                0x000042e0      0x678 d:/android/android-ndk-r8e/platforms/android-9/arch-arm/usr/lib/crtbegin_so.o
 *(.rel.data .rel.data.* .rel.gnu.linkonce.d.*)
 .rel.data      0x00004958       0x98 d:/android/android-ndk-r8e/platforms/android-9/arch-arm/usr/lib/crtbegin_so.o
 .rel.data.rel  0x000049f0       0x60 d:/android/android-ndk-r8e/platforms/android-9/arch-arm/usr/lib/crtbegin_so.o
 .rel.data.rel.local
                0x00004a50       0x78 d:/android/android-ndk-r8e/platforms/android-9/arch-arm/usr/lib/crtbegin_so.o
 *(.rel.tdata .rel.tdata.* .rel.gnu.linkonce.td.*)
 *(.rel.tbss .rel.tbss.* .rel.gnu.linkonce.tb.*)
 *(.rel.ctors)
 *(.rel.dtors)
 *(.rel.got)
 .rel.got       0x00004ac8      0x188 d:/android/android-ndk-r8e/platforms/android-9/arch-arm/usr/lib/crtbegin_so.o
 *(.rel.bss .rel.bss.* .rel.gnu.linkonce.b.*)
 .rel.fini_array
                0x00004c50       0x10 d:/android/android-ndk-r8e/platforms/android-9/arch-arm/usr/lib/crtbegin_so.o
 .rel.init_array
                0x00004c60        0x8 d:/android/android-ndk-r8e/platforms/android-9/arch-arm/usr/lib/crtbegin_so.o

.rela.dyn
 *(.rela.init)
 *(.rela.text .rela.text.* .rela.gnu.linkonce.t.*)
 *(.rela.fini)
 *(.rela.rodata .rela.rodata.* .rela.gnu.linkonce.r.*)
 *(.rela.data .rela.data.* .rela.gnu.linkonce.d.*)
 *(.rela.tdata .rela.tdata.* .rela.gnu.linkonce.td.*)
 *(.rela.tbss .rela.tbss.* .rela.gnu.linkonce.tb.*)
 *(.rela.ctors)
 *(.rela.dtors)
 *(.rela.got)
 *(.rela.bss .rela.bss.* .rela.gnu.linkonce.b.*)

.rel.plt        0x00004c68      0x280
 *(.rel.plt)
 .rel.plt       0x00004c68      0x280 d:/android/android-ndk-r8e/platforms/android-9/arch-arm/usr/lib/crtbegin_so.o

.rela.plt
 *(.rela.plt)

.init
 *(.init)

.plt            0x00004ee8      0x3d4
 *(.plt)
 .plt           0x00004ee8      0x3d4 d:/android/android-ndk-r8e/platforms/android-9/arch-arm/usr/lib/crtbegin_so.o

.text           0x000052c0    0x5d5b0
 *(.text .stub .text.* .gnu.linkonce.t.*)
 .text.exit     0x000052c0       0x10 d:/android/android-ndk-r8e/platforms/android-9/arch-arm/usr/lib/crtbegin_so.o
                0x000052c0                __on_dlclose
 .text._Z22openalextInit_platformv
                0x000052d0        0x8 release\openalext_platform.os
                0x000052d0                openalextInit_platform()
 .text._Z27openalextTerminate_platformv
                0x000052d8        0x4 release\openalext_platform.os
                0x000052d8                openalextTerminate_platform()
 .text._Z30_alcGetCurrentContext_platformv
                0x000052dc        0x4 release\openalext_platform.os
                0x000052dc                _alcGetCurrentContext_platform()
 .text._Z27_alcDestroyContext_platformP11_ALCcontext
                0x000052e0        0x4 release\openalext_platform.os
                0x000052e0                _alcDestroyContext_platform(_ALCcontext*)
 .text._Z27_alcSuspendContext_platformP11_ALCcontext
                0x000052e4       0x10 release\openalext_platform.os
                0x000052e4                _alcSuspendContext_platform(_ALCcontext*)
 .text._Z27_alcProcessContext_platformP11_ALCcontext
                0x000052f4       0x10 release\openalext_platform.os
                0x000052f4                _alcProcessContext_platform(_ALCcontext*)
 .text._Z31_alcMakeContextCurrent_platformP11_ALCcontext
                0x00005304        0x4 release\openalext_platform.os
                0x00005304                _alcMakeContextCurrent_platform(_ALCcontext*)
 .text._Z26_alcCreateContext_platformP10_ALCdevicePKi
                0x00005308        0x4 release\openalext_platform.os
                0x00005308                _alcCreateContext_platform(_ALCdevice*, int const*)
 .text._Z24_alcCloseDevice_platformP10_ALCdevice
                0x0000530c        0x4 release\openalext_platform.os
                0x0000530c                _alcCloseDevice_platform(_ALCdevice*)
 .text._Z23_alcOpenDevice_platformPKc
                0x00005310        0x4 release\openalext_platform.os
                0x00005310                _alcOpenDevice_platform(char const*)
 .text._Z22_alBufferData_platformjjPKvii
                0x00005314        0x4 release\openalext_platform.os
                0x00005314                _alBufferData_platform(unsigned int, unsigned int, void const*, int, int)
 .text._Z25_alDeleteBuffers_platformiPKj
                0x00005318        0x4 release\openalext_platform.os
                0x00005318                _alDeleteBuffers_platform(int, unsigned int const*)
 .text._Z22_alGenBuffers_platformiPj
                0x0000531c        0x4 release\openalext_platform.os
                0x0000531c                _alGenBuffers_platform(int, unsigned int*)
 .text._Z25_alDeleteSources_platformiPKj
                0x00005320        0x4 release\openalext_platform.os
                0x00005320                _alDeleteSources_platform(int, unsigned int const*)
 .text._Z22_alGenSources_platformiPj
                0x00005324        0x4 release\openalext_platform.os
                0x00005324                _alGenSources_platform(int, unsigned int*)
 .text._Z23_alSourcePause_platformj
                0x00005328        0x4 release\openalext_platform.os
                0x00005328                _alSourcePause_platform(unsigned int)
 .text._Z22_alSourceStop_platformj
                0x0000532c        0x4 release\openalext_platform.os
                0x0000532c                _alSourceStop_platform(unsigned int)
 .text._Z22_alSourcePlay_platformj
                0x00005330        0x4 release\openalext_platform.os
                0x00005330                _alSourcePlay_platform(unsigned int)
 .text._Z19_alSourcei_platformjji
                0x00005334        0x4 release\openalext_platform.os
                0x00005334                _alSourcei_platform(unsigned int, unsigned int, int)
 .text._Z19_alSourcef_platformjjf
                0x00005338        0x4 release\openalext_platform.os
                0x00005338                _alSourcef_platform(unsigned int, unsigned int, float)
 .text._Z22_alGetSourcef_platformjjPf
                0x0000533c        0x4 release\openalext_platform.os
                0x0000533c                _alGetSourcef_platform(unsigned int, unsigned int, float*)
 .text._Z22_alGetSourcei_platformjjPi
                0x00005340        0x4 release\openalext_platform.os
                0x00005340                _alGetSourcei_platform(unsigned int, unsigned int, int*)
 .text._Z32_alSourceUnqueueBuffers_platformjiPj
                0x00005344        0x4 release\openalext_platform.os
                0x00005344                _alSourceUnqueueBuffers_platform(unsigned int, int, unsigned int*)
 .text._Z30_alSourceQueueBuffers_platformjiPKj
                0x00005348        0x4 release\openalext_platform.os
                0x00005348                _alSourceQueueBuffers_platform(unsigned int, int, unsigned int const*)
 .text._Z20_alGetError_platformv
                0x0000534c        0x4 release\openalext_platform.os
                0x0000534c                _alGetError_platform()
 .text._alcGetCurrentContext
                0x00005350        0x4 release\openalext.os
                0x00005350                _alcGetCurrentContext
 .text._alcDestroyContext
                0x00005354        0x4 release\openalext.os
                0x00005354                _alcDestroyContext
 .text._alcSuspendContext
                0x00005358        0x4 release\openalext.os
                0x00005358                _alcSuspendContext
 .text._alcProcessContext
                0x0000535c        0x4 release\openalext.os
                0x0000535c                _alcProcessContext
 .text._alcMakeContextCurrent
                0x00005360        0x4 release\openalext.os
                0x00005360                _alcMakeContextCurrent
 .text._alcCreateContext
                0x00005364        0x4 release\openalext.os
                0x00005364                _alcCreateContext
 .text._alcCloseDevice
                0x00005368        0x4 release\openalext.os
                0x00005368                _alcCloseDevice
 .text._alcOpenDevice
                0x0000536c        0x4 release\openalext.os
                0x0000536c                _alcOpenDevice
 .text._alBufferData
                0x00005370        0x4 release\openalext.os
                0x00005370                _alBufferData
 .text._alDeleteBuffers
                0x00005374        0x4 release\openalext.os
                0x00005374                _alDeleteBuffers
 .text._alGenBuffers
                0x00005378        0x4 release\openalext.os
                0x00005378                _alGenBuffers
 .text._alDeleteSources
                0x0000537c        0x4 release\openalext.os
                0x0000537c                _alDeleteSources
 .text._alGenSources
                0x00005380        0x4 release\openalext.os
                0x00005380                _alGenSources
 .text._alSourcePause
                0x00005384        0x4 release\openalext.os
                0x00005384                _alSourcePause
 .text._alSourceStop
                0x00005388        0x4 release\openalext.os
                0x00005388                _alSourceStop
 .text._alSourcePlay
                0x0000538c        0x4 release\openalext.os
                0x0000538c                _alSourcePlay
 .text._alSourcei
                0x00005390        0x4 release\openalext.os
                0x00005390                _alSourcei
 .text._alSourcef
                0x00005394        0x4 release\openalext.os
                0x00005394                _alSourcef
 .text._alGetSourcef
                0x00005398        0x4 release\openalext.os
                0x00005398                _alGetSourcef
 .text._alGetSourcei
                0x0000539c        0x4 release\openalext.os
                0x0000539c                _alGetSourcei
 .text._alSourceUnqueueBuffers
                0x000053a0        0x4 release\openalext.os
                0x000053a0                _alSourceUnqueueBuffers
 .text._alSourceQueueBuffers
                0x000053a4        0x4 release\openalext.os
                0x000053a4                _alSourceQueueBuffers
 .text._alGetError
                0x000053a8        0x4 release\openalext.os
                0x000053a8                _alGetError
 .text._Z18openalextTerminatev
                0x000053ac        0x4 release\openalext.os
                0x000053ac                openalextTerminate()
 .text._Z13openalextInitv
                0x000053b0        0x4 release\openalext.os
                0x000053b0                openalextInit()
 .text.RegisterExt
                0x000053b4      0x214 release\openalext_register.os
                0x000053b4                RegisterExt
 .text.alcGetJavaVM
                0x000055c8       0x10 D:\oxygine-sound\dependencies\openalext\lib\android\libopenal.a(android.o)
                0x000055c8                alcGetJavaVM
 .text.JNI_OnLoad
                0x000055d8       0x40 D:\oxygine-sound\dependencies\openalext\lib\android\libopenal.a(android.o)
                0x000055d8                JNI_OnLoad
 .text.JNI_OnUnload
                0x00005618       0x28 D:\oxygine-sound\dependencies\openalext\lib\android\libopenal.a(android.o)
                0x00005618                JNI_OnUnload
 .text.alcSuspend
                0x00005640       0x24 D:\oxygine-sound\dependencies\openalext\lib\android\libopenal.a(android.o)
                0x00005640                alcSuspend
 .text.alcResume
                0x00005664       0x24 D:\oxygine-sound\dependencies\openalext\lib\android\libopenal.a(android.o)
                0x00005664                alcResume
 .text.Convert_ALfp_IMA4
                0x00005688      0x2c8 D:\oxygine-sound\dependencies\openalext\lib\android\libopenal.a(alBuffer.o)
 .text.ConvertData
                0x00005950      0x8f8 D:\oxygine-sound\dependencies\openalext\lib\android\libopenal.a(alBuffer.o)
 .text.Convert_ALubyte_IMA4
                0x00006248      0x2bc D:\oxygine-sound\dependencies\openalext\lib\android\libopenal.a(alBuffer.o)
 .text.Convert_ALshort_IMA4
                0x00006504      0x350 D:\oxygine-sound\dependencies\openalext\lib\android\libopenal.a(alBuffer.o)
 .text.alGenBuffers
                0x00006854      0x2a4 D:\oxygine-sound\dependencies\openalext\lib\android\libopenal.a(alBuffer.o)
                0x00006854                alGenBuffers
 .text.alDeleteBuffers
                0x00006af8       0xf4 D:\oxygine-sound\dependencies\openalext\lib\android\libopenal.a(alBuffer.o)
                0x00006af8                alDeleteBuffers
 .text.alIsBuffer
                0x00006bec       0x50 D:\oxygine-sound\dependencies\openalext\lib\android\libopenal.a(alBuffer.o)
                0x00006bec                alIsBuffer
 .text.alBufferf
                0x00006c3c       0x44 D:\oxygine-sound\dependencies\openalext\lib\android\libopenal.a(alBuffer.o)
                0x00006c3c                alBufferf
 .text.alBuffer3f
                0x00006c80       0x44 D:\oxygine-sound\dependencies\openalext\lib\android\libopenal.a(alBuffer.o)
                0x00006c80                alBuffer3f
 .text.alBufferfv
                0x00006cc4       0x5c D:\oxygine-sound\dependencies\openalext\lib\android\libopenal.a(alBuffer.o)
                0x00006cc4                alBufferfv
 .text.alBufferi
                0x00006d20       0x44 D:\oxygine-sound\dependencies\openalext\lib\android\libopenal.a(alBuffer.o)
                0x00006d20                alBufferi
 .text.alBuffer3i
                0x00006d64       0x44 D:\oxygine-sound\dependencies\openalext\lib\android\libopenal.a(alBuffer.o)
                0x00006d64                alBuffer3i
 .text.alGetBufferf
                0x00006da8       0x5c D:\oxygine-sound\dependencies\openalext\lib\android\libopenal.a(alBuffer.o)
                0x00006da8                alGetBufferf
 .text.alGetBuffer3f
                0x00006e04       0x74 D:\oxygine-sound\dependencies\openalext\lib\android\libopenal.a(alBuffer.o)
                0x00006e04                alGetBuffer3f
 .text.alGetBufferfv
                0x00006e78       0x5c D:\oxygine-sound\dependencies\openalext\lib\android\libopenal.a(alBuffer.o)
                0x00006e78                alGetBufferfv
 .text.alGetBuffer3i
                0x00006ed4       0x74 D:\oxygine-sound\dependencies\openalext\lib\android\libopenal.a(alBuffer.o)
                0x00006ed4                alGetBuffer3i
 .text.BytesFromUserFmt
                0x00006f48       0x28 D:\oxygine-sound\dependencies\openalext\lib\android\libopenal.a(alBuffer.o)
                0x00006f48                BytesFromUserFmt
 .text.ChannelsFromUserFmt
                0x00006f70       0x28 D:\oxygine-sound\dependencies\openalext\lib\android\libopenal.a(alBuffer.o)
                0x00006f70                ChannelsFromUserFmt
 .text.DecomposeUserFormat
                0x00006f98      0x484 D:\oxygine-sound\dependencies\openalext\lib\android\libopenal.a(alBuffer.o)
                0x00006f98                DecomposeUserFormat
 .text.BytesFromFmt
                0x0000741c       0x2c D:\oxygine-sound\dependencies\openalext\lib\android\libopenal.a(alBuffer.o)
                0x0000741c                BytesFromFmt
 .text.ChannelsFromFmt
                0x00007448       0x28 D:\oxygine-sound\dependencies\openalext\lib\android\libopenal.a(alBuffer.o)
                0x00007448                ChannelsFromFmt
 .text.alGetBufferi
                0x00007470       0xd0 D:\oxygine-sound\dependencies\openalext\lib\android\libopenal.a(alBuffer.o)
                0x00007470                alGetBufferi
 .text.alBufferiv
                0x00007540      0x114 D:\oxygine-sound\dependencies\openalext\lib\android\libopenal.a(alBuffer.o)
                0x00007540                alBufferiv
 .text.alBufferSubDataSOFT
                0x00007654      0x23c D:\oxygine-sound\dependencies\openalext\lib\android\libopenal.a(alBuffer.o)
                0x00007654                alBufferSubDataSOFT
 .text.alGetBufferiv
                0x00007890      0x13c D:\oxygine-sound\dependencies\openalext\lib\android\libopenal.a(alBuffer.o)
                0x00007890                alGetBufferiv
 .text.DecomposeFormat
                0x000079cc      0x32c D:\oxygine-sound\dependencies\openalext\lib\android\libopenal.a(alBuffer.o)
                0x000079cc                DecomposeFormat
 .text.alBufferData
                0x00007cf8      0x6ac D:\oxygine-sound\dependencies\openalext\lib\android\libopenal.a(alBuffer.o)
                0x00007cf8                alBufferData
 .text.ReleaseALBuffers
                0x000083a4       0x60 D:\oxygine-sound\dependencies\openalext\lib\android\libopenal.a(alBuffer.o)
                0x000083a4                ReleaseALBuffers
 .text.alGetError
                0x00008404       0x2c D:\oxygine-sound\dependencies\openalext\lib\android\libopenal.a(alError.o)
                0x00008404                alGetError
 .text.alSetError
                0x00008430       0x10 D:\oxygine-sound\dependencies\openalext\lib\android\libopenal.a(alError.o)
                0x00008430                alSetError
 .text.alGenSources
                0x00008440      0x510 D:\oxygine-sound\dependencies\openalext\lib\android\libopenal.a(alSource.o)
                0x00008440                alGenSources
 .text.alDeleteSources
                0x00008950      0x1bc D:\oxygine-sound\dependencies\openalext\lib\android\libopenal.a(alSource.o)
                0x00008950                alDeleteSources
 .text.alIsSource
                0x00008b0c       0x3c D:\oxygine-sound\dependencies\openalext\lib\android\libopenal.a(alSource.o)
                0x00008b0c                alIsSource
 .text.alSourcef
                0x00008b48      0x548 D:\oxygine-sound\dependencies\openalext\lib\android\libopenal.a(alSource.o)
                0x00008b48                alSourcef
 .text.alSource3f
                0x00009090       0xcc D:\oxygine-sound\dependencies\openalext\lib\android\libopenal.a(alSource.o)
                0x00009090                alSource3f
 .text.alSourcefv
                0x0000915c      0x188 D:\oxygine-sound\dependencies\openalext\lib\android\libopenal.a(alSource.o)
                0x0000915c                alSourcefv
 *fill*         0x000092e4        0x4 00000000
 .text.alSourcei
                0x000092e8      0x540 D:\oxygine-sound\dependencies\openalext\lib\android\libopenal.a(alSource.o)
                0x000092e8                alSourcei
 .text.alSource3i
                0x00009828      0x208 D:\oxygine-sound\dependencies\openalext\lib\android\libopenal.a(alSource.o)
                0x00009828                alSource3i
 .text.alSourceiv
                0x00009a30      0x360 D:\oxygine-sound\dependencies\openalext\lib\android\libopenal.a(alSource.o)
                0x00009a30                alSourceiv
 .text.alGetSourcef
                0x00009d90      0x3ec D:\oxygine-sound\dependencies\openalext\lib\android\libopenal.a(alSource.o)
                0x00009d90                alGetSourcef
 .text.alGetSource3f
                0x0000a17c       0xfc D:\oxygine-sound\dependencies\openalext\lib\android\libopenal.a(alSource.o)
                0x0000a17c                alGetSource3f
 .text.alGetSourcefv
                0x0000a278      0x818 D:\oxygine-sound\dependencies\openalext\lib\android\libopenal.a(alSource.o)
                0x0000a278                alGetSourcefv
 .text.alGetSourcei
                0x0000aa90      0x4a8 D:\oxygine-sound\dependencies\openalext\lib\android\libopenal.a(alSource.o)
                0x0000aa90                alGetSourcei
 .text.alGetSource3i
                0x0000af38       0xf0 D:\oxygine-sound\dependencies\openalext\lib\android\libopenal.a(alSource.o)
                0x0000af38                alGetSource3i
 .text.alGetSourceiv
                0x0000b028      0x940 D:\oxygine-sound\dependencies\openalext\lib\android\libopenal.a(alSource.o)
                0x0000b028                alGetSourceiv
 .text.alSourcePlay
                0x0000b968      0x3e8 D:\oxygine-sound\dependencies\openalext\lib\android\libopenal.a(alSource.o)
                0x0000b968                alSourcePlay
 .text.alSourcePlayv
                0x0000bd50      0x4a0 D:\oxygine-sound\dependencies\openalext\lib\android\libopenal.a(alSource.o)
                0x0000bd50                alSourcePlayv
 .text.alSourcePause
                0x0000c1f0       0x60 D:\oxygine-sound\dependencies\openalext\lib\android\libopenal.a(alSource.o)
                0x0000c1f0                alSourcePause
 .text.alSourcePausev
                0x0000c250       0xc0 D:\oxygine-sound\dependencies\openalext\lib\android\libopenal.a(alSource.o)
                0x0000c250                alSourcePausev
 .text.alSourceStop
                0x0000c310       0x68 D:\oxygine-sound\dependencies\openalext\lib\android\libopenal.a(alSource.o)
                0x0000c310                alSourceStop
 .text.alSourceStopv
                0x0000c378       0xd0 D:\oxygine-sound\dependencies\openalext\lib\android\libopenal.a(alSource.o)
                0x0000c378                alSourceStopv
 .text.alSourceRewind
                0x0000c448       0x80 D:\oxygine-sound\dependencies\openalext\lib\android\libopenal.a(alSource.o)
                0x0000c448                alSourceRewind
 .text.alSourceRewindv
                0x0000c4c8       0xe4 D:\oxygine-sound\dependencies\openalext\lib\android\libopenal.a(alSource.o)
                0x0000c4c8                alSourceRewindv
 .text.alSourceQueueBuffers
                0x0000c5ac      0x274 D:\oxygine-sound\dependencies\openalext\lib\android\libopenal.a(alSource.o)
                0x0000c5ac                alSourceQueueBuffers
 .text.alSourceUnqueueBuffers
                0x0000c820      0x118 D:\oxygine-sound\dependencies\openalext\lib\android\libopenal.a(alSource.o)
                0x0000c820                alSourceUnqueueBuffers
 .text.ReleaseALSources
                0x0000c938       0xf4 D:\oxygine-sound\dependencies\openalext\lib\android\libopenal.a(alSource.o)
                0x0000c938                ReleaseALSources
 .text.startup.alc_init
                0x0000ca2c      0x530 D:\oxygine-sound\dependencies\openalext\lib\android\libopenal.a(ALc.o)
 .text.al_print
                0x0000cf5c       0xf4 D:\oxygine-sound\dependencies\openalext\lib\android\libopenal.a(ALc.o)
                0x0000cf5c                al_print
 .text.AppendAllDeviceList
                0x0000d050       0x9c D:\oxygine-sound\dependencies\openalext\lib\android\libopenal.a(ALc.o)
                0x0000d050                AppendAllDeviceList
 .text.AppendDeviceList
                0x0000d0ec       0x9c D:\oxygine-sound\dependencies\openalext\lib\android\libopenal.a(ALc.o)
                0x0000d0ec                AppendDeviceList
 .text.AppendCaptureDeviceList
                0x0000d188       0x9c D:\oxygine-sound\dependencies\openalext\lib\android\libopenal.a(ALc.o)
                0x0000d188                AppendCaptureDeviceList
 .text.SetRTPriority
                0x0000d224       0xa0 D:\oxygine-sound\dependencies\openalext\lib\android\libopenal.a(ALc.o)
                0x0000d224                SetRTPriority
 .text.InitUIntMap
                0x0000d2c4       0x14 D:\oxygine-sound\dependencies\openalext\lib\android\libopenal.a(ALc.o)
                0x0000d2c4                InitUIntMap
 .text.ResetUIntMap
                0x0000d2d8       0x24 D:\oxygine-sound\dependencies\openalext\lib\android\libopenal.a(ALc.o)
                0x0000d2d8                ResetUIntMap
 .text.InsertUIntMapEntry
                0x0000d2fc      0x160 D:\oxygine-sound\dependencies\openalext\lib\android\libopenal.a(ALc.o)
                0x0000d2fc                InsertUIntMapEntry
 .text.RemoveUIntMapKey
                0x0000d45c       0xb8 D:\oxygine-sound\dependencies\openalext\lib\android\libopenal.a(ALc.o)
                0x0000d45c                RemoveUIntMapKey
 .text.LookupUIntMapKey
                0x0000d514       0x90 D:\oxygine-sound\dependencies\openalext\lib\android\libopenal.a(ALc.o)
                0x0000d514                LookupUIntMapKey
 .text.BytesFromDevFmt
                0x0000d5a4       0x24 D:\oxygine-sound\dependencies\openalext\lib\android\libopenal.a(ALc.o)
                0x0000d5a4                BytesFromDevFmt
 .text.ChannelsFromDevFmt
                0x0000d5c8       0x28 D:\oxygine-sound\dependencies\openalext\lib\android\libopenal.a(ALc.o)
                0x0000d5c8                ChannelsFromDevFmt
 .text.DecomposeDevFormat
                0x0000d5f0      0x278 D:\oxygine-sound\dependencies\openalext\lib\android\libopenal.a(ALc.o)
                0x0000d5f0                DecomposeDevFormat
 .text.SuspendContext
                0x0000d868       0x14 D:\oxygine-sound\dependencies\openalext\lib\android\libopenal.a(ALc.o)
                0x0000d868                SuspendContext
 .text.ProcessContext
                0x0000d87c       0x14 D:\oxygine-sound\dependencies\openalext\lib\android\libopenal.a(ALc.o)
                0x0000d87c                ProcessContext
 .text.alcProcessContext
                0x0000d890       0x64 D:\oxygine-sound\dependencies\openalext\lib\android\libopenal.a(ALc.o)
                0x0000d890                alcProcessContext
 .text.alcSuspendContext
                0x0000d8f4       0x64 D:\oxygine-sound\dependencies\openalext\lib\android\libopenal.a(ALc.o)
                0x0000d8f4                alcSuspendContext
 .text.alcGetThreadContext
                0x0000d958       0x90 D:\oxygine-sound\dependencies\openalext\lib\android\libopenal.a(ALc.o)
                0x0000d958                alcGetThreadContext
 .text.alcGetError
                0x0000d9e8       0x78 D:\oxygine-sound\dependencies\openalext\lib\android\libopenal.a(ALc.o)
                0x0000d9e8                alcGetError
 .text.alcSetError
                0x0000da60       0x68 D:\oxygine-sound\dependencies\openalext\lib\android\libopenal.a(ALc.o)
                0x0000da60                alcSetError
 .text.alcGetEnumValue
                0x0000dac8       0x74 D:\oxygine-sound\dependencies\openalext\lib\android\libopenal.a(ALc.o)
                0x0000dac8                alcGetEnumValue
 .text.alcGetProcAddress
                0x0000db3c       0x74 D:\oxygine-sound\dependencies\openalext\lib\android\libopenal.a(ALc.o)
                0x0000db3c                alcGetProcAddress
 .text.alcDestroyContext
                0x0000dbb0      0x200 D:\oxygine-sound\dependencies\openalext\lib\android\libopenal.a(ALc.o)
                0x0000dbb0                alcDestroyContext
 .text.alcOpenDevice
                0x0000ddb0      0x570 D:\oxygine-sound\dependencies\openalext\lib\android\libopenal.a(ALc.o)
                0x0000ddb0                alcOpenDevice
 .text.alcSetThreadContext
                0x0000e320       0xa4 D:\oxygine-sound\dependencies\openalext\lib\android\libopenal.a(ALc.o)
                0x0000e320                alcSetThreadContext
 .text.alcMakeContextCurrent
                0x0000e3c4       0xa8 D:\oxygine-sound\dependencies\openalext\lib\android\libopenal.a(ALc.o)
                0x0000e3c4                alcMakeContextCurrent
 .text.alcGetContextsDevice
                0x0000e46c       0x78 D:\oxygine-sound\dependencies\openalext\lib\android\libopenal.a(ALc.o)
                0x0000e46c                alcGetContextsDevice
 .text.alcCaptureCloseDevice
                0x0000e4e4      0x10c D:\oxygine-sound\dependencies\openalext\lib\android\libopenal.a(ALc.o)
                0x0000e4e4                alcCaptureCloseDevice
 .text.alcCaptureOpenDevice
                0x0000e5f0      0x17c D:\oxygine-sound\dependencies\openalext\lib\android\libopenal.a(ALc.o)
                0x0000e5f0                alcCaptureOpenDevice
 .text.alcCreateContext
                0x0000e76c      0x634 D:\oxygine-sound\dependencies\openalext\lib\android\libopenal.a(ALc.o)
                0x0000e76c                alcCreateContext
 .text.alcCaptureSamples
                0x0000eda0       0xa0 D:\oxygine-sound\dependencies\openalext\lib\android\libopenal.a(ALc.o)
                0x0000eda0                alcCaptureSamples
 .text.alcCaptureStop
                0x0000ee40       0x90 D:\oxygine-sound\dependencies\openalext\lib\android\libopenal.a(ALc.o)
                0x0000ee40                alcCaptureStop
 .text.alcCaptureStart
                0x0000eed0       0xa0 D:\oxygine-sound\dependencies\openalext\lib\android\libopenal.a(ALc.o)
                0x0000eed0                alcCaptureStart
 .text.alcIsExtensionPresent
                0x0000ef70      0x154 D:\oxygine-sound\dependencies\openalext\lib\android\libopenal.a(ALc.o)
                0x0000ef70                alcIsExtensionPresent
 .text.exit.alc_deinit
                0x0000f0c4      0x598 D:\oxygine-sound\dependencies\openalext\lib\android\libopenal.a(ALc.o)
 .text.alcCloseDevice
                0x0000f65c      0x3b4 D:\oxygine-sound\dependencies\openalext\lib\android\libopenal.a(ALc.o)
                0x0000f65c                alcCloseDevice
 .text.alcGetString
                0x0000fa10      0x578 D:\oxygine-sound\dependencies\openalext\lib\android\libopenal.a(ALc.o)
                0x0000fa10                alcGetString
 .text.alcGetIntegerv
                0x0000ff88      0x538 D:\oxygine-sound\dependencies\openalext\lib\android\libopenal.a(ALc.o)
                0x0000ff88                alcGetIntegerv
 .text.GetContextSuspended
                0x000104c0       0xb8 D:\oxygine-sound\dependencies\openalext\lib\android\libopenal.a(ALc.o)
                0x000104c0                GetContextSuspended
 .text.alcGetCurrentContext
                0x00010578       0x1c D:\oxygine-sound\dependencies\openalext\lib\android\libopenal.a(ALc.o)
                0x00010578                alcGetCurrentContext
 .text.SetDefaultChannelOrder
                0x00010594       0x20 D:\oxygine-sound\dependencies\openalext\lib\android\libopenal.a(ALc.o)
                0x00010594                SetDefaultChannelOrder
 .text.SetDefaultWFXChannelOrder
                0x000105b4       0x20 D:\oxygine-sound\dependencies\openalext\lib\android\libopenal.a(ALc.o)
                0x000105b4                SetDefaultWFXChannelOrder
 .text.LoadConfigFromFile
                0x000105d4      0x60c D:\oxygine-sound\dependencies\openalext\lib\android\libopenal.a(alcConfig.o)
 .text.ReadALConfig
                0x00010be0      0x14c D:\oxygine-sound\dependencies\openalext\lib\android\libopenal.a(alcConfig.o)
                0x00010be0                ReadALConfig
 .text.FreeALConfig
                0x00010d2c       0xa4 D:\oxygine-sound\dependencies\openalext\lib\android\libopenal.a(alcConfig.o)
                0x00010d2c                FreeALConfig
 .text.GetConfigValue
                0x00010dd0       0xd4 D:\oxygine-sound\dependencies\openalext\lib\android\libopenal.a(alcConfig.o)
                0x00010dd0                GetConfigValue
 .text.ConfigValueExists
                0x00010ea4       0x24 D:\oxygine-sound\dependencies\openalext\lib\android\libopenal.a(alcConfig.o)
                0x00010ea4                ConfigValueExists
 .text.GetConfigValueInt
                0x00010ec8       0x3c D:\oxygine-sound\dependencies\openalext\lib\android\libopenal.a(alcConfig.o)
                0x00010ec8                GetConfigValueInt
 .text.GetConfigValueFloat
                0x00010f04       0x44 D:\oxygine-sound\dependencies\openalext\lib\android\libopenal.a(alcConfig.o)
                0x00010f04                GetConfigValueFloat
 .text.GetConfigValueBool
                0x00010f48       0xa8 D:\oxygine-sound\dependencies\openalext\lib\android\libopenal.a(alcConfig.o)
                0x00010f48                GetConfigValueBool
 .text.CalcNonAttnSourceParams
                0x00010ff0      0x3c8 D:\oxygine-sound\dependencies\openalext\lib\android\libopenal.a(ALu.o)
                0x00010ff0                CalcNonAttnSourceParams
 .text.CalcSourceParams
                0x000113b8     0x1020 D:\oxygine-sound\dependencies\openalext\lib\android\libopenal.a(ALu.o)
                0x000113b8                CalcSourceParams
 .text.aluMixData
                0x000123d8     0x6a0c D:\oxygine-sound\dependencies\openalext\lib\android\libopenal.a(ALu.o)
                0x000123d8                aluMixData
 .text.aluHandleDisconnect
                0x00018de4       0xb4 D:\oxygine-sound\dependencies\openalext\lib\android\libopenal.a(ALu.o)
                0x00018de4                aluHandleDisconnect
 .text.bs2b_set_level
                0x00018e98      0x200 D:\oxygine-sound\dependencies\openalext\lib\android\libopenal.a(bs2b.o)
                0x00018e98                bs2b_set_level
 .text.bs2b_get_level
                0x00019098        0x8 D:\oxygine-sound\dependencies\openalext\lib\android\libopenal.a(bs2b.o)
                0x00019098                bs2b_get_level
 .text.bs2b_set_srate
                0x000190a0      0x200 D:\oxygine-sound\dependencies\openalext\lib\android\libopenal.a(bs2b.o)
                0x000190a0                bs2b_set_srate
 .text.bs2b_get_srate
                0x000192a0        0x8 D:\oxygine-sound\dependencies\openalext\lib\android\libopenal.a(bs2b.o)
                0x000192a0                bs2b_get_srate
 .text.bs2b_clear
                0x000192a8       0x20 D:\oxygine-sound\dependencies\openalext\lib\android\libopenal.a(bs2b.o)
                0x000192a8                bs2b_clear
 .text.bs2b_is_clear
                0x000192c8       0x34 D:\oxygine-sound\dependencies\openalext\lib\android\libopenal.a(bs2b.o)
                0x000192c8                bs2b_is_clear
 .text.bs2b_cross_feed
                0x000192fc       0xbc D:\oxygine-sound\dependencies\openalext\lib\android\libopenal.a(bs2b.o)
                0x000192fc                bs2b_cross_feed
 .text.null_open_capture
                0x000193b8        0x8 D:\oxygine-sound\dependencies\openalext\lib\android\libopenal.a(null.o)
 .text.null_stop_playback
                0x000193c0       0x40 D:\oxygine-sound\dependencies\openalext\lib\android\libopenal.a(null.o)
 .text.null_close_playback
                0x00019400       0x20 D:\oxygine-sound\dependencies\openalext\lib\android\libopenal.a(null.o)
 .text.null_open_playback
                0x00019420       0x78 D:\oxygine-sound\dependencies\openalext\lib\android\libopenal.a(null.o)
 .text.null_reset_playback
                0x00019498       0xbc D:\oxygine-sound\dependencies\openalext\lib\android\libopenal.a(null.o)
 .text.NullProc
                0x00019554      0x2ac D:\oxygine-sound\dependencies\openalext\lib\android\libopenal.a(null.o)
 .text.alc_null_init
                0x00019800       0x34 D:\oxygine-sound\dependencies\openalext\lib\android\libopenal.a(null.o)
                0x00019800                alc_null_init
 .text.alc_null_deinit
                0x00019834        0x4 D:\oxygine-sound\dependencies\openalext\lib\android\libopenal.a(null.o)
                0x00019834                alc_null_deinit
 .text.alc_null_probe
                0x00019838       0x30 D:\oxygine-sound\dependencies\openalext\lib\android\libopenal.a(null.o)
                0x00019838                alc_null_probe
 .text.SetSpeakerArrangement.constprop.0
                0x00019868      0x5d0 D:\oxygine-sound\dependencies\openalext\lib\android\libopenal.a(panning.o)
 .text.aluCart2LUTpos
                0x00019e38       0x7c D:\oxygine-sound\dependencies\openalext\lib\android\libopenal.a(panning.o)
                0x00019e38                aluCart2LUTpos
 *fill*         0x00019eb4        0x4 00000000
 .text.aluInitPanning
                0x00019eb8      0x5c0 D:\oxygine-sound\dependencies\openalext\lib\android\libopenal.a(panning.o)
                0x00019eb8                aluInitPanning
 .text.Mix_ALfp_6_point32
                0x0001a478      0xac0 D:\oxygine-sound\dependencies\openalext\lib\android\libopenal.a(mixer.o)
 .text.Mix_ALfp_6_lerp32
                0x0001af38      0xf18 D:\oxygine-sound\dependencies\openalext\lib\android\libopenal.a(mixer.o)
 .text.Mix_ALshort_6_point16
                0x0001be50      0xd68 D:\oxygine-sound\dependencies\openalext\lib\android\libopenal.a(mixer.o)
 .text.Mix_ALshort_6_lerp16
                0x0001cbb8     0x1248 D:\oxygine-sound\dependencies\openalext\lib\android\libopenal.a(mixer.o)
 .text.Mix_ALubyte_6_point8
                0x0001de00      0xd20 D:\oxygine-sound\dependencies\openalext\lib\android\libopenal.a(mixer.o)
 .text.Mix_ALubyte_6_lerp8
                0x0001eb20     0x13c8 D:\oxygine-sound\dependencies\openalext\lib\android\libopenal.a(mixer.o)
 .text.Mix_ALfp_7_point32
                0x0001fee8      0xc08 D:\oxygine-sound\dependencies\openalext\lib\android\libopenal.a(mixer.o)
 .text.Mix_ALfp_7_lerp32
                0x00020af0     0x1100 D:\oxygine-sound\dependencies\openalext\lib\android\libopenal.a(mixer.o)
 .text.Mix_ALshort_7_point16
                0x00021bf0      0xf20 D:\oxygine-sound\dependencies\openalext\lib\android\libopenal.a(mixer.o)
 .text.Mix_ALshort_7_lerp16
                0x00022b10     0x1510 D:\oxygine-sound\dependencies\openalext\lib\android\libopenal.a(mixer.o)
 .text.Mix_ALubyte_7_point8
                0x00024020      0xee8 D:\oxygine-sound\dependencies\openalext\lib\android\libopenal.a(mixer.o)
 .text.Mix_ALubyte_7_lerp8
                0x00024f08     0x16b8 D:\oxygine-sound\dependencies\openalext\lib\android\libopenal.a(mixer.o)
 .text.Mix_ALfp_8_point32
                0x000265c0      0xd74 D:\oxygine-sound\dependencies\openalext\lib\android\libopenal.a(mixer.o)
 .text.Mix_ALfp_8_lerp32
                0x00027334     0x1378 D:\oxygine-sound\dependencies\openalext\lib\android\libopenal.a(mixer.o)
 *fill*         0x000286ac        0x4 00000000
 .text.Mix_ALshort_8_point16
                0x000286b0     0x1100 D:\oxygine-sound\dependencies\openalext\lib\android\libopenal.a(mixer.o)
 .text.Mix_ALshort_8_lerp16
                0x000297b0     0x17a8 D:\oxygine-sound\dependencies\openalext\lib\android\libopenal.a(mixer.o)
 .text.Mix_ALubyte_8_point8
                0x0002af58     0x1098 D:\oxygine-sound\dependencies\openalext\lib\android\libopenal.a(mixer.o)
 .text.Mix_ALubyte_8_lerp8
                0x0002bff0     0x19f8 D:\oxygine-sound\dependencies\openalext\lib\android\libopenal.a(mixer.o)
 .text.Mix_point
                0x0002d9e8     0x36b0 D:\oxygine-sound\dependencies\openalext\lib\android\libopenal.a(mixer.o)
 .text.Mix_ALfp_7_cubic32
                0x00031098     0x2014 D:\oxygine-sound\dependencies\openalext\lib\android\libopenal.a(mixer.o)
 .text.Mix_ALfp_8_cubic32
                0x000330ac     0x2458 D:\oxygine-sound\dependencies\openalext\lib\android\libopenal.a(mixer.o)
 .text.Mix_ALfp_6_cubic32
                0x00035504     0x1c14 D:\oxygine-sound\dependencies\openalext\lib\android\libopenal.a(mixer.o)
 .text.Mix_ALfp_1_cubic32
                0x00037118      0x724 D:\oxygine-sound\dependencies\openalext\lib\android\libopenal.a(mixer.o)
 *fill*         0x0003783c        0x4 00000000
 .text.Mix_ALshort_7_cubic16
                0x00037840     0x2d48 D:\oxygine-sound\dependencies\openalext\lib\android\libopenal.a(mixer.o)
 .text.Mix_ALshort_8_cubic16
                0x0003a588     0x34d8 D:\oxygine-sound\dependencies\openalext\lib\android\libopenal.a(mixer.o)
 .text.Mix_ALshort_6_cubic16
                0x0003da60     0x2800 D:\oxygine-sound\dependencies\openalext\lib\android\libopenal.a(mixer.o)
 .text.Mix_ALshort_1_cubic16
                0x00040260      0x880 D:\oxygine-sound\dependencies\openalext\lib\android\libopenal.a(mixer.o)
 .text.Mix_ALubyte_7_cubic8
                0x00040ae0     0x2cf0 D:\oxygine-sound\dependencies\openalext\lib\android\libopenal.a(mixer.o)
 .text.Mix_ALubyte_8_cubic8
                0x000437d0     0x32b8 D:\oxygine-sound\dependencies\openalext\lib\android\libopenal.a(mixer.o)
 .text.Mix_ALubyte_6_cubic8
                0x00046a88     0x27e8 D:\oxygine-sound\dependencies\openalext\lib\android\libopenal.a(mixer.o)
 .text.Mix_ALubyte_1_cubic8
                0x00049270      0x978 D:\oxygine-sound\dependencies\openalext\lib\android\libopenal.a(mixer.o)
 .text.Mix_cubic
                0x00049be8     0x75f0 D:\oxygine-sound\dependencies\openalext\lib\android\libopenal.a(mixer.o)
 .text.MixSource
                0x000511d8     0x5650 D:\oxygine-sound\dependencies\openalext\lib\android\libopenal.a(mixer.o)
                0x000511d8                MixSource
 .text.android_open_capture
                0x00056828        0x8 D:\oxygine-sound\dependencies\openalext\lib\android\libopenal.a(audiotrack.o)
 .text.android_close_capture
                0x00056830        0x4 D:\oxygine-sound\dependencies\openalext\lib\android\libopenal.a(audiotrack.o)
 .text.android_start_capture
                0x00056834        0x4 D:\oxygine-sound\dependencies\openalext\lib\android\libopenal.a(audiotrack.o)
 .text.android_stop_capture
                0x00056838        0x4 D:\oxygine-sound\dependencies\openalext\lib\android\libopenal.a(audiotrack.o)
 .text.android_capture_samples
                0x0005683c        0x4 D:\oxygine-sound\dependencies\openalext\lib\android\libopenal.a(audiotrack.o)
 .text.android_available_samples
                0x00056840        0x8 D:\oxygine-sound\dependencies\openalext\lib\android\libopenal.a(audiotrack.o)
 .text.alc_audiotrack_suspend
                0x00056848       0x1c D:\oxygine-sound\dependencies\openalext\lib\android\libopenal.a(audiotrack.o)
 .text.android_stop_playback
                0x00056864       0x40 D:\oxygine-sound\dependencies\openalext\lib\android\libopenal.a(audiotrack.o)
 .text.android_reset_playback
                0x000568a4       0x40 D:\oxygine-sound\dependencies\openalext\lib\android\libopenal.a(audiotrack.o)
 .text.thread_function
                0x000568e4      0x31c D:\oxygine-sound\dependencies\openalext\lib\android\libopenal.a(audiotrack.o)
 .text.android_close_playback
                0x00056c00       0x28 D:\oxygine-sound\dependencies\openalext\lib\android\libopenal.a(audiotrack.o)
 .text.android_open_playback
                0x00056c28      0x270 D:\oxygine-sound\dependencies\openalext\lib\android\libopenal.a(audiotrack.o)
 .text.alc_audiotrack_resume
                0x00056e98       0x58 D:\oxygine-sound\dependencies\openalext\lib\android\libopenal.a(audiotrack.o)
 .text.alc_audiotrack_init
                0x00056ef0       0x7c D:\oxygine-sound\dependencies\openalext\lib\android\libopenal.a(audiotrack.o)
                0x00056ef0                alc_audiotrack_init
 .text.alc_audiotrack_deinit
                0x00056f6c       0x48 D:\oxygine-sound\dependencies\openalext\lib\android\libopenal.a(audiotrack.o)
                0x00056f6c                alc_audiotrack_deinit
 .text.alc_audiotrack_probe
                0x00056fb4       0x30 D:\oxygine-sound\dependencies\openalext\lib\android\libopenal.a(audiotrack.o)
                0x00056fb4                alc_audiotrack_probe
 .text.opensles_available_samples
                0x00056fe4       0x30 D:\oxygine-sound\dependencies\openalext\lib\android\libopenal.a(opensles.o)
 .text.opensles_capture_samples
                0x00057014       0x38 D:\oxygine-sound\dependencies\openalext\lib\android\libopenal.a(opensles.o)
 .text.opensles_stop_capture
                0x0005704c       0x24 D:\oxygine-sound\dependencies\openalext\lib\android\libopenal.a(opensles.o)
 .text.opensles_start_capture
                0x00057070       0x24 D:\oxygine-sound\dependencies\openalext\lib\android\libopenal.a(opensles.o)
 .text.opensles_close_capture
                0x00057094       0x24 D:\oxygine-sound\dependencies\openalext\lib\android\libopenal.a(opensles.o)
 .text.opensles_open_capture
                0x000570b8       0x3c D:\oxygine-sound\dependencies\openalext\lib\android\libopenal.a(opensles.o)
 .text.opensles_stop_playback
                0x000570f4       0x4c D:\oxygine-sound\dependencies\openalext\lib\android\libopenal.a(opensles.o)
 .text.opensles_close_playback
                0x00057140       0xcc D:\oxygine-sound\dependencies\openalext\lib\android\libopenal.a(opensles.o)
 .text.playback_function
                0x0005720c      0x18c D:\oxygine-sound\dependencies\openalext\lib\android\libopenal.a(opensles.o)
 .text.opensles_callback
                0x00057398      0x1b0 D:\oxygine-sound\dependencies\openalext\lib\android\libopenal.a(opensles.o)
 .text.alc_opensles_set_java_vm
                0x00057548      0x3dc D:\oxygine-sound\dependencies\openalext\lib\android\libopenal.a(opensles.o)
 .text.alc_opensles_suspend
                0x00057924      0x1dc D:\oxygine-sound\dependencies\openalext\lib\android\libopenal.a(opensles.o)
                0x00057924                alc_opensles_suspend
 .text.alc_opensles_init_extradata
                0x00057b00      0x33c D:\oxygine-sound\dependencies\openalext\lib\android\libopenal.a(opensles.o)
                0x00057b00                alc_opensles_init_extradata
 .text.opensles_reset_playback
                0x00057e3c      0x3d8 D:\oxygine-sound\dependencies\openalext\lib\android\libopenal.a(opensles.o)
 .text.alc_opensles_resume
                0x00058214      0x184 D:\oxygine-sound\dependencies\openalext\lib\android\libopenal.a(opensles.o)
                0x00058214                alc_opensles_resume
 .text.alc_opensles_create_native_audio_engine
                0x00058398       0xb4 D:\oxygine-sound\dependencies\openalext\lib\android\libopenal.a(opensles.o)
                0x00058398                alc_opensles_create_native_audio_engine
 .text.alc_opensles_init
                0x0005844c       0x94 D:\oxygine-sound\dependencies\openalext\lib\android\libopenal.a(opensles.o)
                0x0005844c                alc_opensles_init
 .text.alc_opensles_deinit
                0x000584e0       0x84 D:\oxygine-sound\dependencies\openalext\lib\android\libopenal.a(opensles.o)
                0x000584e0                alc_opensles_deinit
 .text.alc_opensles_probe
                0x00058564      0x344 D:\oxygine-sound\dependencies\openalext\lib\android\libopenal.a(opensles.o)
                0x00058564                alc_opensles_probe
 .text.opensles_open_playback
                0x000588a8       0x8c D:\oxygine-sound\dependencies\openalext\lib\android\libopenal.a(opensles.o)
 .text.NoneDeviceUpdate
                0x00058934        0x8 D:\oxygine-sound\dependencies\openalext\lib\android\libopenal.a(alAuxEffectSlot.o)
 .text.NoneUpdate
                0x0005893c        0x4 D:\oxygine-sound\dependencies\openalext\lib\android\libopenal.a(alAuxEffectSlot.o)
 .text.NoneProcess
                0x00058940        0x4 D:\oxygine-sound\dependencies\openalext\lib\android\libopenal.a(alAuxEffectSlot.o)
 .text.NoneDestroy
                0x00058944        0x4 D:\oxygine-sound\dependencies\openalext\lib\android\libopenal.a(alAuxEffectSlot.o)
 .text.alDeleteAuxiliaryEffectSlots
                0x00058948       0xe0 D:\oxygine-sound\dependencies\openalext\lib\android\libopenal.a(alAuxEffectSlot.o)
                0x00058948                alDeleteAuxiliaryEffectSlots
 .text.alIsAuxiliaryEffectSlot
                0x00058a28       0x3c D:\oxygine-sound\dependencies\openalext\lib\android\libopenal.a(alAuxEffectSlot.o)
                0x00058a28                alIsAuxiliaryEffectSlot
 .text.alAuxiliaryEffectSlotf
                0x00058a64       0xa0 D:\oxygine-sound\dependencies\openalext\lib\android\libopenal.a(alAuxEffectSlot.o)
                0x00058a64                alAuxiliaryEffectSlotf
 .text.alAuxiliaryEffectSlotfv
                0x00058b04       0xdc D:\oxygine-sound\dependencies\openalext\lib\android\libopenal.a(alAuxEffectSlot.o)
                0x00058b04                alAuxiliaryEffectSlotfv
 .text.alGetAuxiliaryEffectSloti
                0x00058be0       0x80 D:\oxygine-sound\dependencies\openalext\lib\android\libopenal.a(alAuxEffectSlot.o)
                0x00058be0                alGetAuxiliaryEffectSloti
 .text.alGetAuxiliaryEffectSlotiv
                0x00058c60       0xd8 D:\oxygine-sound\dependencies\openalext\lib\android\libopenal.a(alAuxEffectSlot.o)
                0x00058c60                alGetAuxiliaryEffectSlotiv
 .text.alGetAuxiliaryEffectSlotf
                0x00058d38       0x6c D:\oxygine-sound\dependencies\openalext\lib\android\libopenal.a(alAuxEffectSlot.o)
                0x00058d38                alGetAuxiliaryEffectSlotf
 .text.alGetAuxiliaryEffectSlotfv
                0x00058da4       0xa4 D:\oxygine-sound\dependencies\openalext\lib\android\libopenal.a(alAuxEffectSlot.o)
                0x00058da4                alGetAuxiliaryEffectSlotfv
 .text.NoneCreate
                0x00058e48       0x54 D:\oxygine-sound\dependencies\openalext\lib\android\libopenal.a(alAuxEffectSlot.o)
                0x00058e48                NoneCreate
 .text.alAuxiliaryEffectSloti
                0x00058e9c      0x244 D:\oxygine-sound\dependencies\openalext\lib\android\libopenal.a(alAuxEffectSlot.o)
                0x00058e9c                alAuxiliaryEffectSloti
 .text.alAuxiliaryEffectSlotiv
                0x000590e0       0x7c D:\oxygine-sound\dependencies\openalext\lib\android\libopenal.a(alAuxEffectSlot.o)
                0x000590e0                alAuxiliaryEffectSlotiv
 .text.alGenAuxiliaryEffectSlots
                0x0005915c      0x304 D:\oxygine-sound\dependencies\openalext\lib\android\libopenal.a(alAuxEffectSlot.o)
                0x0005915c                alGenAuxiliaryEffectSlots
 .text.ReleaseALAuxiliaryEffectSlots
                0x00059460       0x64 D:\oxygine-sound\dependencies\openalext\lib\android\libopenal.a(alAuxEffectSlot.o)
                0x00059460                ReleaseALAuxiliaryEffectSlots
 .text.alGenDatabuffersEXT
                0x000594c4      0x2c4 D:\oxygine-sound\dependencies\openalext\lib\android\libopenal.a(alDatabuffer.o)
                0x000594c4                alGenDatabuffersEXT
 .text.alDeleteDatabuffersEXT
                0x00059788      0x110 D:\oxygine-sound\dependencies\openalext\lib\android\libopenal.a(alDatabuffer.o)
                0x00059788                alDeleteDatabuffersEXT
 .text.alIsDatabufferEXT
                0x00059898       0x50 D:\oxygine-sound\dependencies\openalext\lib\android\libopenal.a(alDatabuffer.o)
                0x00059898                alIsDatabufferEXT
 .text.alDatabufferDataEXT
                0x000598e8       0xe8 D:\oxygine-sound\dependencies\openalext\lib\android\libopenal.a(alDatabuffer.o)
                0x000598e8                alDatabufferDataEXT
 .text.alDatabufferSubDataEXT
                0x000599d0       0xb0 D:\oxygine-sound\dependencies\openalext\lib\android\libopenal.a(alDatabuffer.o)
                0x000599d0                alDatabufferSubDataEXT
 .text.alGetDatabufferSubDataEXT
                0x00059a80       0xb0 D:\oxygine-sound\dependencies\openalext\lib\android\libopenal.a(alDatabuffer.o)
                0x00059a80                alGetDatabufferSubDataEXT
 .text.alDatabufferfEXT
                0x00059b30       0x44 D:\oxygine-sound\dependencies\openalext\lib\android\libopenal.a(alDatabuffer.o)
                0x00059b30                alDatabufferfEXT
 .text.alDatabufferfvEXT
                0x00059b74       0x44 D:\oxygine-sound\dependencies\openalext\lib\android\libopenal.a(alDatabuffer.o)
                0x00059b74                alDatabufferfvEXT
 .text.alDatabufferiEXT
                0x00059bb8       0x44 D:\oxygine-sound\dependencies\openalext\lib\android\libopenal.a(alDatabuffer.o)
                0x00059bb8                alDatabufferiEXT
 .text.alDatabufferivEXT
                0x00059bfc       0x44 D:\oxygine-sound\dependencies\openalext\lib\android\libopenal.a(alDatabuffer.o)
                0x00059bfc                alDatabufferivEXT
 .text.alGetDatabufferfEXT
                0x00059c40       0x5c D:\oxygine-sound\dependencies\openalext\lib\android\libopenal.a(alDatabuffer.o)
                0x00059c40                alGetDatabufferfEXT
 .text.alGetDatabufferfvEXT
                0x00059c9c       0x5c D:\oxygine-sound\dependencies\openalext\lib\android\libopenal.a(alDatabuffer.o)
                0x00059c9c                alGetDatabufferfvEXT
 .text.alGetDatabufferiEXT
                0x00059cf8       0x88 D:\oxygine-sound\dependencies\openalext\lib\android\libopenal.a(alDatabuffer.o)
                0x00059cf8                alGetDatabufferiEXT
 .text.alGetDatabufferivEXT
                0x00059d80       0xc4 D:\oxygine-sound\dependencies\openalext\lib\android\libopenal.a(alDatabuffer.o)
                0x00059d80                alGetDatabufferivEXT
 .text.alSelectDatabufferEXT
                0x00059e44       0x7c D:\oxygine-sound\dependencies\openalext\lib\android\libopenal.a(alDatabuffer.o)
                0x00059e44                alSelectDatabufferEXT
 .text.alMapDatabufferEXT
                0x00059ec0       0xe0 D:\oxygine-sound\dependencies\openalext\lib\android\libopenal.a(alDatabuffer.o)
                0x00059ec0                alMapDatabufferEXT
 .text.alUnmapDatabufferEXT
                0x00059fa0       0x68 D:\oxygine-sound\dependencies\openalext\lib\android\libopenal.a(alDatabuffer.o)
                0x00059fa0                alUnmapDatabufferEXT
 .text.ReleaseALDatabuffers
                0x0005a008       0x60 D:\oxygine-sound\dependencies\openalext\lib\android\libopenal.a(alDatabuffer.o)
                0x0005a008                ReleaseALDatabuffers
 .text.alGenEffects
                0x0005a068      0x244 D:\oxygine-sound\dependencies\openalext\lib\android\libopenal.a(alEffect.o)
                0x0005a068                alGenEffects
 .text.alDeleteEffects
                0x0005a2ac       0xd0 D:\oxygine-sound\dependencies\openalext\lib\android\libopenal.a(alEffect.o)
                0x0005a2ac                alDeleteEffects
 .text.alIsEffect
                0x0005a37c       0x50 D:\oxygine-sound\dependencies\openalext\lib\android\libopenal.a(alEffect.o)
                0x0005a37c                alIsEffect
 .text.alEffectf
                0x0005a3cc      0x59c D:\oxygine-sound\dependencies\openalext\lib\android\libopenal.a(alEffect.o)
                0x0005a3cc                alEffectf
 .text.alEffecti
                0x0005a968      0x2c0 D:\oxygine-sound\dependencies\openalext\lib\android\libopenal.a(alEffect.o)
                0x0005a968                alEffecti
 .text.alEffectiv
                0x0005ac28       0xc4 D:\oxygine-sound\dependencies\openalext\lib\android\libopenal.a(alEffect.o)
                0x0005ac28                alEffectiv
 .text.alEffectfv
                0x0005acec      0x12c D:\oxygine-sound\dependencies\openalext\lib\android\libopenal.a(alEffect.o)
                0x0005acec                alEffectfv
 .text.alGetEffecti
                0x0005ae18       0xf4 D:\oxygine-sound\dependencies\openalext\lib\android\libopenal.a(alEffect.o)
                0x0005ae18                alGetEffecti
 .text.alGetEffectiv
                0x0005af0c      0x250 D:\oxygine-sound\dependencies\openalext\lib\android\libopenal.a(alEffect.o)
                0x0005af0c                alGetEffectiv
 .text.alGetEffectf
                0x0005b15c      0x2a0 D:\oxygine-sound\dependencies\openalext\lib\android\libopenal.a(alEffect.o)
                0x0005b15c                alGetEffectf
 .text.alGetEffectfv
                0x0005b3fc      0x12c D:\oxygine-sound\dependencies\openalext\lib\android\libopenal.a(alEffect.o)
                0x0005b3fc                alGetEffectfv
 .text.ReleaseALEffects
                0x0005b528       0x58 D:\oxygine-sound\dependencies\openalext\lib\android\libopenal.a(alEffect.o)
                0x0005b528                ReleaseALEffects
 .text.alIsExtensionPresent
                0x0005b580      0x104 D:\oxygine-sound\dependencies\openalext\lib\android\libopenal.a(alExtension.o)
                0x0005b580                alIsExtensionPresent
 .text.alGetProcAddress
                0x0005b684       0x10 D:\oxygine-sound\dependencies\openalext\lib\android\libopenal.a(alExtension.o)
                0x0005b684                alGetProcAddress
 .text.alGetEnumValue
                0x0005b694       0x60 D:\oxygine-sound\dependencies\openalext\lib\android\libopenal.a(alExtension.o)
                0x0005b694                alGetEnumValue
 .text.alGenFilters
                0x0005b6f4      0x25c D:\oxygine-sound\dependencies\openalext\lib\android\libopenal.a(alFilter.o)
                0x0005b6f4                alGenFilters
 .text.alDeleteFilters
                0x0005b950       0xd0 D:\oxygine-sound\dependencies\openalext\lib\android\libopenal.a(alFilter.o)
                0x0005b950                alDeleteFilters
 .text.alIsFilter
                0x0005ba20       0x50 D:\oxygine-sound\dependencies\openalext\lib\android\libopenal.a(alFilter.o)
                0x0005ba20                alIsFilter
 .text.alFilteri
                0x0005ba70       0x94 D:\oxygine-sound\dependencies\openalext\lib\android\libopenal.a(alFilter.o)
                0x0005ba70                alFilteri
 .text.alFilteriv
                0x0005bb04       0xd4 D:\oxygine-sound\dependencies\openalext\lib\android\libopenal.a(alFilter.o)
                0x0005bb04                alFilteriv
 .text.alFilterf
                0x0005bbd8       0xdc D:\oxygine-sound\dependencies\openalext\lib\android\libopenal.a(alFilter.o)
                0x0005bbd8                alFilterf
 .text.alFilterfv
                0x0005bcb4      0x11c D:\oxygine-sound\dependencies\openalext\lib\android\libopenal.a(alFilter.o)
                0x0005bcb4                alFilterfv
 .text.alGetFilteri
                0x0005bdd0       0x74 D:\oxygine-sound\dependencies\openalext\lib\android\libopenal.a(alFilter.o)
                0x0005bdd0                alGetFilteri
 .text.alGetFilteriv
                0x0005be44       0xb0 D:\oxygine-sound\dependencies\openalext\lib\android\libopenal.a(alFilter.o)
                0x0005be44                alGetFilteriv
 .text.alGetFilterf
                0x0005bef4       0x90 D:\oxygine-sound\dependencies\openalext\lib\android\libopenal.a(alFilter.o)
                0x0005bef4                alGetFilterf
 .text.alGetFilterfv
                0x0005bf84       0xcc D:\oxygine-sound\dependencies\openalext\lib\android\libopenal.a(alFilter.o)
                0x0005bf84                alGetFilterfv
 .text.ReleaseALFilters
                0x0005c050       0x58 D:\oxygine-sound\dependencies\openalext\lib\android\libopenal.a(alFilter.o)
                0x0005c050                ReleaseALFilters
 .text.alListenerf
                0x0005c0a8       0xbc D:\oxygine-sound\dependencies\openalext\lib\android\libopenal.a(alListener.o)
                0x0005c0a8                alListenerf
 .text.alListener3f
                0x0005c164       0xa8 D:\oxygine-sound\dependencies\openalext\lib\android\libopenal.a(alListener.o)
                0x0005c164                alListener3f
 .text.alListenerfv
                0x0005c20c      0x238 D:\oxygine-sound\dependencies\openalext\lib\android\libopenal.a(alListener.o)
                0x0005c20c                alListenerfv
 .text.alListeneri
                0x0005c444       0x3c D:\oxygine-sound\dependencies\openalext\lib\android\libopenal.a(alListener.o)
                0x0005c444                alListeneri
 .text.alListener3i
                0x0005c480       0xf8 D:\oxygine-sound\dependencies\openalext\lib\android\libopenal.a(alListener.o)
                0x0005c480                alListener3i
 .text.alListeneriv
                0x0005c578      0x1fc D:\oxygine-sound\dependencies\openalext\lib\android\libopenal.a(alListener.o)
                0x0005c578                alListeneriv
 .text.alGetListenerf
                0x0005c774       0x74 D:\oxygine-sound\dependencies\openalext\lib\android\libopenal.a(alListener.o)
                0x0005c774                alGetListenerf
 .text.alGetListener3f
                0x0005c7e8       0xa8 D:\oxygine-sound\dependencies\openalext\lib\android\libopenal.a(alListener.o)
                0x0005c7e8                alGetListener3f
 .text.alGetListenerfv
                0x0005c890      0x10c D:\oxygine-sound\dependencies\openalext\lib\android\libopenal.a(alListener.o)
                0x0005c890                alGetListenerfv
 .text.alGetListeneri
                0x0005c99c       0x58 D:\oxygine-sound\dependencies\openalext\lib\android\libopenal.a(alListener.o)
                0x0005c99c                alGetListeneri
 .text.alGetListener3i
                0x0005c9f4       0xa8 D:\oxygine-sound\dependencies\openalext\lib\android\libopenal.a(alListener.o)
                0x0005c9f4                alGetListener3i
 .text.alGetListeneriv
                0x0005ca9c       0xec D:\oxygine-sound\dependencies\openalext\lib\android\libopenal.a(alListener.o)
                0x0005ca9c                alGetListeneriv
 .text.alEnable
                0x0005cb88       0x6c D:\oxygine-sound\dependencies\openalext\lib\android\libopenal.a(alState.o)
                0x0005cb88                alEnable
 .text.alDisable
                0x0005cbf4       0x6c D:\oxygine-sound\dependencies\openalext\lib\android\libopenal.a(alState.o)
                0x0005cbf4                alDisable
 .text.alIsEnabled
                0x0005cc60       0x40 D:\oxygine-sound\dependencies\openalext\lib\android\libopenal.a(alState.o)
                0x0005cc60                alIsEnabled
 .text.alGetBoolean
                0x0005cca0       0xe4 D:\oxygine-sound\dependencies\openalext\lib\android\libopenal.a(alState.o)
                0x0005cca0                alGetBoolean
 *fill*         0x0005cd84        0x4 00000000
 .text.alGetDouble
                0x0005cd88       0xa8 D:\oxygine-sound\dependencies\openalext\lib\android\libopenal.a(alState.o)
                0x0005cd88                alGetDouble
 .text.alGetFloat
                0x0005ce30       0x90 D:\oxygine-sound\dependencies\openalext\lib\android\libopenal.a(alState.o)
                0x0005ce30                alGetFloat
 .text.alGetInteger
                0x0005cec0       0xf4 D:\oxygine-sound\dependencies\openalext\lib\android\libopenal.a(alState.o)
                0x0005cec0                alGetInteger
 .text.alGetBooleanv
                0x0005cfb4       0xe0 D:\oxygine-sound\dependencies\openalext\lib\android\libopenal.a(alState.o)
                0x0005cfb4                alGetBooleanv
 .text.alGetDoublev
                0x0005d094       0xb0 D:\oxygine-sound\dependencies\openalext\lib\android\libopenal.a(alState.o)
                0x0005d094                alGetDoublev
 .text.alGetFloatv
                0x0005d144       0xa4 D:\oxygine-sound\dependencies\openalext\lib\android\libopenal.a(alState.o)
                0x0005d144                alGetFloatv
 .text.alGetIntegerv
                0x0005d1e8       0xec D:\oxygine-sound\dependencies\openalext\lib\android\libopenal.a(alState.o)
                0x0005d1e8                alGetIntegerv
 .text.alGetString
                0x0005d2d4      0x170 D:\oxygine-sound\dependencies\openalext\lib\android\libopenal.a(alState.o)
                0x0005d2d4                alGetString
 .text.alDopplerFactor
                0x0005d444       0x80 D:\oxygine-sound\dependencies\openalext\lib\android\libopenal.a(alState.o)
                0x0005d444                alDopplerFactor
 .text.alDopplerVelocity
                0x0005d4c4       0x80 D:\oxygine-sound\dependencies\openalext\lib\android\libopenal.a(alState.o)
                0x0005d4c4                alDopplerVelocity
 .text.alSpeedOfSound
                0x0005d544       0x80 D:\oxygine-sound\dependencies\openalext\lib\android\libopenal.a(alState.o)
                0x0005d544                alSpeedOfSound
 .text.alDistanceModel
                0x0005d5c4       0x8c D:\oxygine-sound\dependencies\openalext\lib\android\libopenal.a(alState.o)
                0x0005d5c4                alDistanceModel
 .text.EchoProcess
                0x0005d650       0xf4 D:\oxygine-sound\dependencies\openalext\lib\android\libopenal.a(alcEcho.o)
 *fill*         0x0005d744        0x4 00000000
 .text.EchoUpdate
                0x0005d748      0x168 D:\oxygine-sound\dependencies\openalext\lib\android\libopenal.a(alcEcho.o)
 .text.EchoDeviceUpdate
                0x0005d8b0      0x110 D:\oxygine-sound\dependencies\openalext\lib\android\libopenal.a(alcEcho.o)
 .text.EchoDestroy
                0x0005d9c0       0x28 D:\oxygine-sound\dependencies\openalext\lib\android\libopenal.a(alcEcho.o)
 .text.EchoCreate
                0x0005d9e8       0x84 D:\oxygine-sound\dependencies\openalext\lib\android\libopenal.a(alcEcho.o)
                0x0005d9e8                EchoCreate
 .text.ModulatorDeviceUpdate
                0x0005da6c       0x5c D:\oxygine-sound\dependencies\openalext\lib\android\libopenal.a(alcModulator.o)
 .text.ModulatorProcess
                0x0005dac8      0x218 D:\oxygine-sound\dependencies\openalext\lib\android\libopenal.a(alcModulator.o)
 .text.ModulatorUpdate
                0x0005dce0       0xe0 D:\oxygine-sound\dependencies\openalext\lib\android\libopenal.a(alcModulator.o)
 .text.ModulatorDestroy
                0x0005ddc0        0x4 D:\oxygine-sound\dependencies\openalext\lib\android\libopenal.a(alcModulator.o)
 .text.ModulatorCreate
                0x0005ddc4       0x74 D:\oxygine-sound\dependencies\openalext\lib\android\libopenal.a(alcModulator.o)
                0x0005ddc4                ModulatorCreate
 .text.AllocLines
                0x0005de38      0x470 D:\oxygine-sound\dependencies\openalext\lib\android\libopenal.a(alcReverb.o)
 .text.EAXVerbDeviceUpdate
                0x0005e2a8      0x114 D:\oxygine-sound\dependencies\openalext\lib\android\libopenal.a(alcReverb.o)
 .text.VerbDestroy
                0x0005e3bc       0x28 D:\oxygine-sound\dependencies\openalext\lib\android\libopenal.a(alcReverb.o)
 .text.VerbDeviceUpdate
                0x0005e3e4      0x130 D:\oxygine-sound\dependencies\openalext\lib\android\libopenal.a(alcReverb.o)
 .text.LateReverb
                0x0005e514      0x314 D:\oxygine-sound\dependencies\openalext\lib\android\libopenal.a(alcReverb.o)
 .text.EAXVerbProcess
                0x0005e828      0x4b0 D:\oxygine-sound\dependencies\openalext\lib\android\libopenal.a(alcReverb.o)
 .text.EAXVerbUpdate
                0x0005ecd8      0xd18 D:\oxygine-sound\dependencies\openalext\lib\android\libopenal.a(alcReverb.o)
 .text.VerbProcess
                0x0005f9f0      0x2c4 D:\oxygine-sound\dependencies\openalext\lib\android\libopenal.a(alcReverb.o)
 *fill*         0x0005fcb4        0x4 00000000
 .text.VerbUpdate
                0x0005fcb8      0x8c0 D:\oxygine-sound\dependencies\openalext\lib\android\libopenal.a(alcReverb.o)
 .text.VerbCreate
                0x00060578      0x20c D:\oxygine-sound\dependencies\openalext\lib\android\libopenal.a(alcReverb.o)
                0x00060578                VerbCreate
 .text.EAXVerbCreate
                0x00060784       0x44 D:\oxygine-sound\dependencies\openalext\lib\android\libopenal.a(alcReverb.o)
                0x00060784                EAXVerbCreate
 .text.StarterFunc
                0x000607c8       0x20 D:\oxygine-sound\dependencies\openalext\lib\android\libopenal.a(alcThread.o)
 .text.StartThread
                0x000607e8       0x60 D:\oxygine-sound\dependencies\openalext\lib\android\libopenal.a(alcThread.o)
                0x000607e8                StartThread
 .text.StopThread
                0x00060848       0x28 D:\oxygine-sound\dependencies\openalext\lib\android\libopenal.a(alcThread.o)
                0x00060848                StopThread
 .text          0x00060870       0xc4 d:/android/android-ndk-r8e/toolchains/arm-linux-androideabi-4.4.3/prebuilt/windows/bin/../lib/gcc/arm-linux-androideabi/4.4.3\libgcc.a(_udivsi3.o)
                0x00060870                __udivsi3
                0x00060870                __aeabi_uidiv
                0x0006091c                __aeabi_uidivmod
 .text          0x00060934       0xf4 d:/android/android-ndk-r8e/toolchains/arm-linux-androideabi-4.4.3/prebuilt/windows/bin/../lib/gcc/arm-linux-androideabi/4.4.3\libgcc.a(_divsi3.o)
                0x00060934                __aeabi_idiv
                0x00060934                __divsi3
                0x00060a10                __aeabi_idivmod
 .text          0x00060a28       0x1c d:/android/android-ndk-r8e/toolchains/arm-linux-androideabi-4.4.3/prebuilt/windows/bin/../lib/gcc/arm-linux-androideabi/4.4.3\libgcc.a(_aeabi_ldivmod.o)
                0x00060a28                __aeabi_ldivmod
 .text          0x00060a44       0x1c d:/android/android-ndk-r8e/toolchains/arm-linux-androideabi-4.4.3/prebuilt/windows/bin/../lib/gcc/arm-linux-androideabi/4.4.3\libgcc.a(_aeabi_uldivmod.o)
                0x00060a44                __aeabi_uldivmod
 .text          0x00060a60       0x10 d:/android/android-ndk-r8e/toolchains/arm-linux-androideabi-4.4.3/prebuilt/windows/bin/../lib/gcc/arm-linux-androideabi/4.4.3\libgcc.a(_dvmd_lnx.o)
                0x00060a60                __div0
 .text          0x00060a70       0x88 d:/android/android-ndk-r8e/toolchains/arm-linux-androideabi-4.4.3/prebuilt/windows/bin/../lib/gcc/arm-linux-androideabi/4.4.3\libgcc.a(bpabi.o)
                0x00060a70                __gnu_uldivmod_helper
                0x00060ab4                __gnu_ldivmod_helper
 .text          0x00060af8      0xec4 d:/android/android-ndk-r8e/toolchains/arm-linux-androideabi-4.4.3/prebuilt/windows/bin/../lib/gcc/arm-linux-androideabi/4.4.3\libgcc.a(unwind-arm.o)
                0x00061520                __gnu_Unwind_RaiseException
                0x00061078                __aeabi_unwind_cpp_pr0
                0x00060ba8                _Unwind_GetCFA
                0x00060b44                _Unwind_VRS_Set
                0x000612bc                __gnu_Unwind_Backtrace
                0x00061650                _Unwind_VRS_Pop
                0x00061068                __aeabi_unwind_cpp_pr2
                0x00060bb4                _Unwind_DeleteException
                0x00060bb0                _Unwind_Complete
                0x000615e4                __gnu_Unwind_Resume
                0x000614ac                __gnu_Unwind_ForcedUnwind
                0x000615c4                __gnu_Unwind_Resume_or_Rethrow
                0x00060af8                _Unwind_VRS_Get
                0x00061070                __aeabi_unwind_cpp_pr1
 .text          0x000619bc      0x1a8 d:/android/android-ndk-r8e/toolchains/arm-linux-androideabi-4.4.3/prebuilt/windows/bin/../lib/gcc/arm-linux-androideabi/4.4.3\libgcc.a(libunwind.o)
                0x00061b1c                ___Unwind_ForcedUnwind
                0x000619d8                __gnu_Unwind_Save_VFP
                0x00061af8                _Unwind_Resume_or_Rethrow
                0x00061af8                ___Unwind_Resume_or_Rethrow
                0x00061b40                _Unwind_Backtrace
                0x000619bc                __restore_core_regs
                0x000619f8                __gnu_Unwind_Save_VFP_D_16_to_31
                0x000619e8                __gnu_Unwind_Save_VFP_D
                0x00061b40                ___Unwind_Backtrace
                0x00061ab0                ___Unwind_RaiseException
                0x00061ad4                ___Unwind_Resume
                0x00061a00                __gnu_Unwind_Restore_WMMXD
                0x000619d0                __gnu_Unwind_Restore_VFP
                0x00061ad4                _Unwind_Resume
                0x000619e0                __gnu_Unwind_Restore_VFP_D
                0x000619f0                __gnu_Unwind_Restore_VFP_D_16_to_31
                0x00061ab0                _Unwind_RaiseException
                0x000619bc                restore_core_regs
                0x00061a9c                __gnu_Unwind_Save_WMMXC
                0x00061a88                __gnu_Unwind_Restore_WMMXC
                0x00061b1c                _Unwind_ForcedUnwind
                0x00061a44                __gnu_Unwind_Save_WMMXD
 .text          0x00061b64      0x484 d:/android/android-ndk-r8e/toolchains/arm-linux-androideabi-4.4.3/prebuilt/windows/bin/../lib/gcc/arm-linux-androideabi/4.4.3\libgcc.a(pr-support.o)
                0x00061c04                _Unwind_GetRegionStart
                0x00061c30                __gnu_unwind_execute
                0x00061bbc                _Unwind_GetTextRelBase
                0x00061bcc                _Unwind_GetLanguageSpecificData
                0x00061fa8                __gnu_unwind_frame
                0x00061bc4                _Unwind_GetDataRelBase
 .text          0x00061fe8      0x47c d:/android/android-ndk-r8e/toolchains/arm-linux-androideabi-4.4.3/prebuilt/windows/bin/../lib/gcc/arm-linux-androideabi/4.4.3\libgcc.a(_divdi3.o)
                0x00061fe8                __divdi3
 .text          0x00062464      0x40c d:/android/android-ndk-r8e/toolchains/arm-linux-androideabi-4.4.3/prebuilt/windows/bin/../lib/gcc/arm-linux-androideabi/4.4.3\libgcc.a(_udivdi3.o)
                0x00062464                __udivdi3
 *(.gnu.warning)
 *(.glue_7t)
 .glue_7t       0x00000000        0x0 linker stubs
 *(.glue_7)
 .glue_7        0x00000000        0x0 linker stubs
 *(.vfp11_veneer)
 .vfp11_veneer  0x00000000        0x0 linker stubs
 *(.v4_bx)
 .v4_bx         0x00000000        0x0 linker stubs

.fini
 *(.fini)
                0x00062870                PROVIDE (__etext, .)
                0x00062870                PROVIDE (_etext, .)
                0x00062870                PROVIDE (etext, .)

.rodata         0x00062870     0x2bf8
 *(.rodata .rodata.* .gnu.linkonce.r.*)
 .rodata.str1.4
                0x00062870        0xa release\openalext_register.os
                                  0xc (size before relaxing)
 *fill*         0x0006287a        0x2 00
 .rodata        0x0006287c      0x488 D:\oxygine-sound\dependencies\openalext\lib\android\libopenal.a(alBuffer.o)
 .rodata        0x00062d04       0x18 D:\oxygine-sound\dependencies\openalext\lib\android\libopenal.a(alSource.o)
                0x00062d10                ResamplerPadding
                0x00062d04                ResamplerPrePadding
 .rodata.str1.4
                0x00062d1c       0x49 D:\oxygine-sound\dependencies\openalext\lib\android\libopenal.a(alSource.o)
                                 0x4c (size before relaxing)
 *fill*         0x00062d65        0x3 00
 .rodata        0x00062d68      0x254 D:\oxygine-sound\dependencies\openalext\lib\android\libopenal.a(ALc.o)
 .rodata.str1.4
                0x00062fbc      0xdea D:\oxygine-sound\dependencies\openalext\lib\android\libopenal.a(ALc.o)
                                0xdf0 (size before relaxing)
 *fill*         0x00063da6        0x2 00
 .rodata.str1.4
                0x00063da8      0x19b D:\oxygine-sound\dependencies\openalext\lib\android\libopenal.a(alcConfig.o)
                                0x1a4 (size before relaxing)
 *fill*         0x00063f43        0x1 00
 .rodata.str1.4
                0x00063f44       0x20 D:\oxygine-sound\dependencies\openalext\lib\android\libopenal.a(ALu.o)
 .rodata        0x00063f64        0xc D:\oxygine-sound\dependencies\openalext\lib\android\libopenal.a(null.o)
 .rodata.str1.4
                0x00063f70       0x2e D:\oxygine-sound\dependencies\openalext\lib\android\libopenal.a(null.o)
                                 0x30 (size before relaxing)
 *fill*         0x00063f9e        0x2 00
 .rodata.str1.4
                0x00063fa0      0x109 D:\oxygine-sound\dependencies\openalext\lib\android\libopenal.a(panning.o)
                                0x110 (size before relaxing)
 *fill*         0x000640a9        0x3 00
 .rodata        0x000640ac       0x10 D:\oxygine-sound\dependencies\openalext\lib\android\libopenal.a(audiotrack.o)
 .rodata.str1.4
                0x000640bc      0x118 D:\oxygine-sound\dependencies\openalext\lib\android\libopenal.a(audiotrack.o)
 .rodata        0x000641d4       0x18 D:\oxygine-sound\dependencies\openalext\lib\android\libopenal.a(opensles.o)
 .rodata.str1.4
                0x000641ec      0x53c D:\oxygine-sound\dependencies\openalext\lib\android\libopenal.a(opensles.o)
                                0x550 (size before relaxing)
 .rodata.str1.4
                0x00064728      0xc7c D:\oxygine-sound\dependencies\openalext\lib\android\libopenal.a(alExtension.o)
                                0xdb4 (size before relaxing)
 .rodata        0x000653a4       0x94 D:\oxygine-sound\dependencies\openalext\lib\android\libopenal.a(alState.o)
 .rodata        0x00065438       0x30 D:\oxygine-sound\dependencies\openalext\lib\android\libopenal.a(alcReverb.o)

.rodata1
 *(.rodata1)

.ARM.extab      0x00065468      0x3d8
 *(.ARM.extab* .gnu.linkonce.armextab.*)
 .ARM.extab.text.JNI_OnUnload
                0x00065468        0xc D:\oxygine-sound\dependencies\openalext\lib\android\libopenal.a(android.o)
 .ARM.extab.text.alcSuspend
                0x00065474        0xc D:\oxygine-sound\dependencies\openalext\lib\android\libopenal.a(android.o)
 .ARM.extab.text.alcResume
                0x00065480        0xc D:\oxygine-sound\dependencies\openalext\lib\android\libopenal.a(android.o)
 .ARM.extab.text.alDeleteBuffers
                0x0006548c        0xc D:\oxygine-sound\dependencies\openalext\lib\android\libopenal.a(alBuffer.o)
 .ARM.extab.text.alBufferiv
                0x00065498        0xc D:\oxygine-sound\dependencies\openalext\lib\android\libopenal.a(alBuffer.o)
 .ARM.extab.text.alGetBufferiv
                0x000654a4        0xc D:\oxygine-sound\dependencies\openalext\lib\android\libopenal.a(alBuffer.o)
 .ARM.extab.text.alSourcef
                0x000654b0        0xc D:\oxygine-sound\dependencies\openalext\lib\android\libopenal.a(alSource.o)
 .ARM.extab.text.alSource3f
                0x000654bc        0xc D:\oxygine-sound\dependencies\openalext\lib\android\libopenal.a(alSource.o)
 .ARM.extab.text.alSourcei
                0x000654c8        0xc D:\oxygine-sound\dependencies\openalext\lib\android\libopenal.a(alSource.o)
 .ARM.extab.text.alGetSource3f
                0x000654d4        0xc D:\oxygine-sound\dependencies\openalext\lib\android\libopenal.a(alSource.o)
 .ARM.extab.text.alGetSourcefv
                0x000654e0        0xc D:\oxygine-sound\dependencies\openalext\lib\android\libopenal.a(alSource.o)
 .ARM.extab.text.alGetSource3i
                0x000654ec        0xc D:\oxygine-sound\dependencies\openalext\lib\android\libopenal.a(alSource.o)
 .ARM.extab.text.alSourcePlay
                0x000654f8        0xc D:\oxygine-sound\dependencies\openalext\lib\android\libopenal.a(alSource.o)
 .ARM.extab.text.alSourcePlayv
                0x00065504        0xc D:\oxygine-sound\dependencies\openalext\lib\android\libopenal.a(alSource.o)
 .ARM.extab.text.alSourcePausev
                0x00065510        0xc D:\oxygine-sound\dependencies\openalext\lib\android\libopenal.a(alSource.o)
 .ARM.extab.text.alSourceStopv
                0x0006551c        0xc D:\oxygine-sound\dependencies\openalext\lib\android\libopenal.a(alSource.o)
 .ARM.extab.text.alSourceRewindv
                0x00065528        0xc D:\oxygine-sound\dependencies\openalext\lib\android\libopenal.a(alSource.o)
 .ARM.extab.text.alSourceUnqueueBuffers
                0x00065534        0xc D:\oxygine-sound\dependencies\openalext\lib\android\libopenal.a(alSource.o)
 .ARM.extab.text.al_print
                0x00065540        0xc D:\oxygine-sound\dependencies\openalext\lib\android\libopenal.a(ALc.o)
 .ARM.extab.text.alcOpenDevice
                0x0006554c        0xc D:\oxygine-sound\dependencies\openalext\lib\android\libopenal.a(ALc.o)
 .ARM.extab.text.ConfigValueExists
                0x00065558        0xc D:\oxygine-sound\dependencies\openalext\lib\android\libopenal.a(alcConfig.o)
 .ARM.extab.text.GetConfigValueFloat
                0x00065564        0xc D:\oxygine-sound\dependencies\openalext\lib\android\libopenal.a(alcConfig.o)
 .ARM.extab.text.CalcNonAttnSourceParams
                0x00065570        0xc D:\oxygine-sound\dependencies\openalext\lib\android\libopenal.a(ALu.o)
 .ARM.extab.text.CalcSourceParams
                0x0006557c        0xc D:\oxygine-sound\dependencies\openalext\lib\android\libopenal.a(ALu.o)
 .ARM.extab.text.aluMixData
                0x00065588        0xc D:\oxygine-sound\dependencies\openalext\lib\android\libopenal.a(ALu.o)
 .ARM.extab.text.aluHandleDisconnect
                0x00065594        0xc D:\oxygine-sound\dependencies\openalext\lib\android\libopenal.a(ALu.o)
 .ARM.extab.text.aluInitPanning
                0x000655a0        0xc D:\oxygine-sound\dependencies\openalext\lib\android\libopenal.a(panning.o)
 .ARM.extab.text.Mix_ALfp_6_point32
                0x000655ac        0xc D:\oxygine-sound\dependencies\openalext\lib\android\libopenal.a(mixer.o)
 .ARM.extab.text.Mix_ALfp_6_lerp32
                0x000655b8        0xc D:\oxygine-sound\dependencies\openalext\lib\android\libopenal.a(mixer.o)
 .ARM.extab.text.Mix_ALshort_6_point16
                0x000655c4        0xc D:\oxygine-sound\dependencies\openalext\lib\android\libopenal.a(mixer.o)
 .ARM.extab.text.Mix_ALshort_6_lerp16
                0x000655d0        0xc D:\oxygine-sound\dependencies\openalext\lib\android\libopenal.a(mixer.o)
 .ARM.extab.text.Mix_ALubyte_6_point8
                0x000655dc        0xc D:\oxygine-sound\dependencies\openalext\lib\android\libopenal.a(mixer.o)
 .ARM.extab.text.Mix_ALubyte_6_lerp8
                0x000655e8        0xc D:\oxygine-sound\dependencies\openalext\lib\android\libopenal.a(mixer.o)
 .ARM.extab.text.Mix_ALfp_7_point32
                0x000655f4        0xc D:\oxygine-sound\dependencies\openalext\lib\android\libopenal.a(mixer.o)
 .ARM.extab.text.Mix_ALfp_7_lerp32
                0x00065600        0xc D:\oxygine-sound\dependencies\openalext\lib\android\libopenal.a(mixer.o)
 .ARM.extab.text.Mix_ALshort_7_point16
                0x0006560c        0xc D:\oxygine-sound\dependencies\openalext\lib\android\libopenal.a(mixer.o)
 .ARM.extab.text.Mix_ALshort_7_lerp16
                0x00065618        0xc D:\oxygine-sound\dependencies\openalext\lib\android\libopenal.a(mixer.o)
 .ARM.extab.text.Mix_ALubyte_7_point8
                0x00065624        0xc D:\oxygine-sound\dependencies\openalext\lib\android\libopenal.a(mixer.o)
 .ARM.extab.text.Mix_ALubyte_7_lerp8
                0x00065630        0xc D:\oxygine-sound\dependencies\openalext\lib\android\libopenal.a(mixer.o)
 .ARM.extab.text.Mix_ALfp_8_point32
                0x0006563c        0xc D:\oxygine-sound\dependencies\openalext\lib\android\libopenal.a(mixer.o)
 .ARM.extab.text.Mix_ALfp_8_lerp32
                0x00065648        0xc D:\oxygine-sound\dependencies\openalext\lib\android\libopenal.a(mixer.o)
 .ARM.extab.text.Mix_ALshort_8_point16
                0x00065654        0xc D:\oxygine-sound\dependencies\openalext\lib\android\libopenal.a(mixer.o)
 .ARM.extab.text.Mix_ALshort_8_lerp16
                0x00065660        0xc D:\oxygine-sound\dependencies\openalext\lib\android\libopenal.a(mixer.o)
 .ARM.extab.text.Mix_ALubyte_8_point8
                0x0006566c        0xc D:\oxygine-sound\dependencies\openalext\lib\android\libopenal.a(mixer.o)
 .ARM.extab.text.Mix_ALubyte_8_lerp8
                0x00065678        0xc D:\oxygine-sound\dependencies\openalext\lib\android\libopenal.a(mixer.o)
 .ARM.extab.text.Mix_point
                0x00065684        0xc D:\oxygine-sound\dependencies\openalext\lib\android\libopenal.a(mixer.o)
 .ARM.extab.text.Mix_ALfp_7_cubic32
                0x00065690        0xc D:\oxygine-sound\dependencies\openalext\lib\android\libopenal.a(mixer.o)
 .ARM.extab.text.Mix_ALfp_8_cubic32
                0x0006569c        0xc D:\oxygine-sound\dependencies\openalext\lib\android\libopenal.a(mixer.o)
 .ARM.extab.text.Mix_ALfp_6_cubic32
                0x000656a8        0xc D:\oxygine-sound\dependencies\openalext\lib\android\libopenal.a(mixer.o)
 .ARM.extab.text.Mix_ALfp_1_cubic32
                0x000656b4        0xc D:\oxygine-sound\dependencies\openalext\lib\android\libopenal.a(mixer.o)
 .ARM.extab.text.Mix_ALshort_7_cubic16
                0x000656c0        0xc D:\oxygine-sound\dependencies\openalext\lib\android\libopenal.a(mixer.o)
 .ARM.extab.text.Mix_ALshort_8_cubic16
                0x000656cc        0xc D:\oxygine-sound\dependencies\openalext\lib\android\libopenal.a(mixer.o)
 .ARM.extab.text.Mix_ALshort_6_cubic16
                0x000656d8        0xc D:\oxygine-sound\dependencies\openalext\lib\android\libopenal.a(mixer.o)
 .ARM.extab.text.Mix_ALshort_1_cubic16
                0x000656e4        0xc D:\oxygine-sound\dependencies\openalext\lib\android\libopenal.a(mixer.o)
 .ARM.extab.text.Mix_ALubyte_7_cubic8
                0x000656f0        0xc D:\oxygine-sound\dependencies\openalext\lib\android\libopenal.a(mixer.o)
 .ARM.extab.text.Mix_ALubyte_8_cubic8
                0x000656fc        0xc D:\oxygine-sound\dependencies\openalext\lib\android\libopenal.a(mixer.o)
 .ARM.extab.text.Mix_ALubyte_6_cubic8
                0x00065708        0xc D:\oxygine-sound\dependencies\openalext\lib\android\libopenal.a(mixer.o)
 .ARM.extab.text.Mix_ALubyte_1_cubic8
                0x00065714        0xc D:\oxygine-sound\dependencies\openalext\lib\android\libopenal.a(mixer.o)
 .ARM.extab.text.Mix_cubic
                0x00065720        0xc D:\oxygine-sound\dependencies\openalext\lib\android\libopenal.a(mixer.o)
 .ARM.extab.text.MixSource
                0x0006572c        0xc D:\oxygine-sound\dependencies\openalext\lib\android\libopenal.a(mixer.o)
 .ARM.extab.text.android_stop_playback
                0x00065738        0xc D:\oxygine-sound\dependencies\openalext\lib\android\libopenal.a(audiotrack.o)
 .ARM.extab.text.opensles_available_samples
                0x00065744        0xc D:\oxygine-sound\dependencies\openalext\lib\android\libopenal.a(opensles.o)
 .ARM.extab.text.alAuxiliaryEffectSlotfv
                0x00065750        0xc D:\oxygine-sound\dependencies\openalext\lib\android\libopenal.a(alAuxEffectSlot.o)
 .ARM.extab.text.NoneCreate
                0x0006575c        0xc D:\oxygine-sound\dependencies\openalext\lib\android\libopenal.a(alAuxEffectSlot.o)
 .ARM.extab.text.alDeleteEffects
                0x00065768        0xc D:\oxygine-sound\dependencies\openalext\lib\android\libopenal.a(alEffect.o)
 .ARM.extab.text.alDeleteFilters
                0x00065774        0xc D:\oxygine-sound\dependencies\openalext\lib\android\libopenal.a(alFilter.o)
 .ARM.extab.text.alFilterfv
                0x00065780        0xc D:\oxygine-sound\dependencies\openalext\lib\android\libopenal.a(alFilter.o)
 .ARM.extab.text.alListenerf
                0x0006578c        0xc D:\oxygine-sound\dependencies\openalext\lib\android\libopenal.a(alListener.o)
 .ARM.extab.text.alListenerfv
                0x00065798        0xc D:\oxygine-sound\dependencies\openalext\lib\android\libopenal.a(alListener.o)
 .ARM.extab.text.alListener3i
                0x000657a4        0xc D:\oxygine-sound\dependencies\openalext\lib\android\libopenal.a(alListener.o)
 .ARM.extab.text.alGetDouble
                0x000657b0        0xc D:\oxygine-sound\dependencies\openalext\lib\android\libopenal.a(alState.o)
 .ARM.extab.text.alGetFloat
                0x000657bc        0xc D:\oxygine-sound\dependencies\openalext\lib\android\libopenal.a(alState.o)
 .ARM.extab.text.EchoUpdate
                0x000657c8        0xc D:\oxygine-sound\dependencies\openalext\lib\android\libopenal.a(alcEcho.o)
 .ARM.extab.text.EAXVerbDeviceUpdate
                0x000657d4        0xc D:\oxygine-sound\dependencies\openalext\lib\android\libopenal.a(alcReverb.o)
 .ARM.extab.text.EAXVerbProcess
                0x000657e0        0xc D:\oxygine-sound\dependencies\openalext\lib\android\libopenal.a(alcReverb.o)
 .ARM.extab.text.EAXVerbUpdate
                0x000657ec        0xc D:\oxygine-sound\dependencies\openalext\lib\android\libopenal.a(alcReverb.o)
 .ARM.extab.text.VerbProcess
                0x000657f8        0xc D:\oxygine-sound\dependencies\openalext\lib\android\libopenal.a(alcReverb.o)
 .ARM.extab.text.VerbUpdate
                0x00065804        0xc D:\oxygine-sound\dependencies\openalext\lib\android\libopenal.a(alcReverb.o)
 .ARM.extab.text.EAXVerbCreate
                0x00065810        0xc D:\oxygine-sound\dependencies\openalext\lib\android\libopenal.a(alcReverb.o)
 .ARM.extab     0x0006581c       0x24 d:/android/android-ndk-r8e/toolchains/arm-linux-androideabi-4.4.3/prebuilt/windows/bin/../lib/gcc/arm-linux-androideabi/4.4.3\libgcc.a(unwind-arm.o)
                0x00065840                __exidx_start = .

.ARM.exidx      0x00065840      0xae8
 *(.ARM.exidx* .gnu.linkonce.armexidx.*)
 .ARM.exidx.text.alcGetJavaVM
                0x00065840        0x8 D:\oxygine-sound\dependencies\openalext\lib\android\libopenal.a(android.o)
 .ARM.exidx.text.JNI_OnLoad
                0x00065848        0x8 D:\oxygine-sound\dependencies\openalext\lib\android\libopenal.a(android.o)
 .ARM.exidx.text.JNI_OnUnload
                0x00065850        0x8 D:\oxygine-sound\dependencies\openalext\lib\android\libopenal.a(android.o)
 .ARM.exidx.text.alcSuspend
                0x00065858        0x8 D:\oxygine-sound\dependencies\openalext\lib\android\libopenal.a(android.o)
 .ARM.exidx.text.alcResume
                0x00065860        0x8 D:\oxygine-sound\dependencies\openalext\lib\android\libopenal.a(android.o)
 .ARM.exidx.text.Convert_ALfp_IMA4
                0x00065868        0x8 D:\oxygine-sound\dependencies\openalext\lib\android\libopenal.a(alBuffer.o)
 .ARM.exidx.text.ConvertData
                0x00065870        0x8 D:\oxygine-sound\dependencies\openalext\lib\android\libopenal.a(alBuffer.o)
 .ARM.exidx.text.Convert_ALubyte_IMA4
                0x00065878        0x8 D:\oxygine-sound\dependencies\openalext\lib\android\libopenal.a(alBuffer.o)
 .ARM.exidx.text.Convert_ALshort_IMA4
                0x00065880        0x8 D:\oxygine-sound\dependencies\openalext\lib\android\libopenal.a(alBuffer.o)
 .ARM.exidx.text.alGenBuffers
                0x00065888        0x8 D:\oxygine-sound\dependencies\openalext\lib\android\libopenal.a(alBuffer.o)
 .ARM.exidx.text.alDeleteBuffers
                0x00065890        0x8 D:\oxygine-sound\dependencies\openalext\lib\android\libopenal.a(alBuffer.o)
 .ARM.exidx.text.alIsBuffer
                0x00065898        0x8 D:\oxygine-sound\dependencies\openalext\lib\android\libopenal.a(alBuffer.o)
 .ARM.exidx.text.alBufferf
                0x000658a0        0x8 D:\oxygine-sound\dependencies\openalext\lib\android\libopenal.a(alBuffer.o)
 .ARM.exidx.text.alBuffer3f
                0x000658a8        0x8 D:\oxygine-sound\dependencies\openalext\lib\android\libopenal.a(alBuffer.o)
 .ARM.exidx.text.alBufferfv
                0x000658b0        0x8 D:\oxygine-sound\dependencies\openalext\lib\android\libopenal.a(alBuffer.o)
 .ARM.exidx.text.alBufferi
                0x000658b8        0x8 D:\oxygine-sound\dependencies\openalext\lib\android\libopenal.a(alBuffer.o)
 .ARM.exidx.text.alBuffer3i
                0x000658c0        0x8 D:\oxygine-sound\dependencies\openalext\lib\android\libopenal.a(alBuffer.o)
 .ARM.exidx.text.alGetBufferf
                0x000658c8        0x8 D:\oxygine-sound\dependencies\openalext\lib\android\libopenal.a(alBuffer.o)
 .ARM.exidx.text.alGetBuffer3f
                0x000658d0        0x8 D:\oxygine-sound\dependencies\openalext\lib\android\libopenal.a(alBuffer.o)
 .ARM.exidx.text.alGetBufferfv
                0x000658d8        0x8 D:\oxygine-sound\dependencies\openalext\lib\android\libopenal.a(alBuffer.o)
 .ARM.exidx.text.alGetBuffer3i
                0x000658e0        0x8 D:\oxygine-sound\dependencies\openalext\lib\android\libopenal.a(alBuffer.o)
 .ARM.exidx.text.BytesFromUserFmt
                0x000658e8        0x8 D:\oxygine-sound\dependencies\openalext\lib\android\libopenal.a(alBuffer.o)
 .ARM.exidx.text.ChannelsFromUserFmt
                0x000658f0        0x8 D:\oxygine-sound\dependencies\openalext\lib\android\libopenal.a(alBuffer.o)
 .ARM.exidx.text.DecomposeUserFormat
                0x000658f8        0x8 D:\oxygine-sound\dependencies\openalext\lib\android\libopenal.a(alBuffer.o)
 .ARM.exidx.text.BytesFromFmt
                0x00065900        0x8 D:\oxygine-sound\dependencies\openalext\lib\android\libopenal.a(alBuffer.o)
 .ARM.exidx.text.ChannelsFromFmt
                0x00065908        0x8 D:\oxygine-sound\dependencies\openalext\lib\android\libopenal.a(alBuffer.o)
 .ARM.exidx.text.alGetBufferi
                0x00065910        0x8 D:\oxygine-sound\dependencies\openalext\lib\android\libopenal.a(alBuffer.o)
 .ARM.exidx.text.alBufferiv
                0x00065918        0x8 D:\oxygine-sound\dependencies\openalext\lib\android\libopenal.a(alBuffer.o)
 .ARM.exidx.text.alBufferSubDataSOFT
                0x00065920        0x8 D:\oxygine-sound\dependencies\openalext\lib\android\libopenal.a(alBuffer.o)
 .ARM.exidx.text.alGetBufferiv
                0x00065928        0x8 D:\oxygine-sound\dependencies\openalext\lib\android\libopenal.a(alBuffer.o)
 .ARM.exidx.text.DecomposeFormat
                0x00065930        0x8 D:\oxygine-sound\dependencies\openalext\lib\android\libopenal.a(alBuffer.o)
 .ARM.exidx.text.alBufferData
                0x00065938        0x8 D:\oxygine-sound\dependencies\openalext\lib\android\libopenal.a(alBuffer.o)
 .ARM.exidx.text.ReleaseALBuffers
                0x00065940        0x8 D:\oxygine-sound\dependencies\openalext\lib\android\libopenal.a(alBuffer.o)
 .ARM.exidx.text.alGetError
                0x00065948        0x8 D:\oxygine-sound\dependencies\openalext\lib\android\libopenal.a(alError.o)
 .ARM.exidx.text.alSetError
                0x00065950        0x8 D:\oxygine-sound\dependencies\openalext\lib\android\libopenal.a(alError.o)
 .ARM.exidx.text.alGenSources
                0x00065958        0x8 D:\oxygine-sound\dependencies\openalext\lib\android\libopenal.a(alSource.o)
 .ARM.exidx.text.alDeleteSources
                0x00065960        0x8 D:\oxygine-sound\dependencies\openalext\lib\android\libopenal.a(alSource.o)
 .ARM.exidx.text.alIsSource
                0x00065968        0x8 D:\oxygine-sound\dependencies\openalext\lib\android\libopenal.a(alSource.o)
 .ARM.exidx.text.alSourcef
                0x00065970        0x8 D:\oxygine-sound\dependencies\openalext\lib\android\libopenal.a(alSource.o)
 .ARM.exidx.text.alSource3f
                0x00065978        0x8 D:\oxygine-sound\dependencies\openalext\lib\android\libopenal.a(alSource.o)
 .ARM.exidx.text.alSourcefv
                0x00065980        0x8 D:\oxygine-sound\dependencies\openalext\lib\android\libopenal.a(alSource.o)
 .ARM.exidx.text.alSourcei
                0x00065988        0x8 D:\oxygine-sound\dependencies\openalext\lib\android\libopenal.a(alSource.o)
 .ARM.exidx.text.alSource3i
                0x00065990        0x8 D:\oxygine-sound\dependencies\openalext\lib\android\libopenal.a(alSource.o)
 .ARM.exidx.text.alSourceiv
                0x00065998        0x8 D:\oxygine-sound\dependencies\openalext\lib\android\libopenal.a(alSource.o)
 .ARM.exidx.text.alGetSourcef
                0x000659a0        0x8 D:\oxygine-sound\dependencies\openalext\lib\android\libopenal.a(alSource.o)
 .ARM.exidx.text.alGetSource3f
                0x000659a8        0x8 D:\oxygine-sound\dependencies\openalext\lib\android\libopenal.a(alSource.o)
 .ARM.exidx.text.alGetSourcefv
                0x000659b0        0x8 D:\oxygine-sound\dependencies\openalext\lib\android\libopenal.a(alSource.o)
 .ARM.exidx.text.alGetSourcei
                0x000659b8        0x8 D:\oxygine-sound\dependencies\openalext\lib\android\libopenal.a(alSource.o)
 .ARM.exidx.text.alGetSource3i
                0x000659c0        0x8 D:\oxygine-sound\dependencies\openalext\lib\android\libopenal.a(alSource.o)
 .ARM.exidx.text.alGetSourceiv
                0x000659c8        0x8 D:\oxygine-sound\dependencies\openalext\lib\android\libopenal.a(alSource.o)
 .ARM.exidx.text.alSourcePlay
                0x000659d0        0x8 D:\oxygine-sound\dependencies\openalext\lib\android\libopenal.a(alSource.o)
 .ARM.exidx.text.alSourcePlayv
                0x000659d8        0x8 D:\oxygine-sound\dependencies\openalext\lib\android\libopenal.a(alSource.o)
 .ARM.exidx.text.alSourcePause
                0x000659e0        0x8 D:\oxygine-sound\dependencies\openalext\lib\android\libopenal.a(alSource.o)
 .ARM.exidx.text.alSourcePausev
                0x000659e8        0x8 D:\oxygine-sound\dependencies\openalext\lib\android\libopenal.a(alSource.o)
 .ARM.exidx.text.alSourceStop
                0x000659f0        0x8 D:\oxygine-sound\dependencies\openalext\lib\android\libopenal.a(alSource.o)
 .ARM.exidx.text.alSourceStopv
                0x000659f8        0x8 D:\oxygine-sound\dependencies\openalext\lib\android\libopenal.a(alSource.o)
 .ARM.exidx.text.alSourceRewind
                0x00065a00        0x8 D:\oxygine-sound\dependencies\openalext\lib\android\libopenal.a(alSource.o)
 .ARM.exidx.text.alSourceRewindv
                0x00065a08        0x8 D:\oxygine-sound\dependencies\openalext\lib\android\libopenal.a(alSource.o)
 .ARM.exidx.text.alSourceQueueBuffers
                0x00065a10        0x8 D:\oxygine-sound\dependencies\openalext\lib\android\libopenal.a(alSource.o)
 .ARM.exidx.text.alSourceUnqueueBuffers
                0x00065a18        0x8 D:\oxygine-sound\dependencies\openalext\lib\android\libopenal.a(alSource.o)
 .ARM.exidx.text.ReleaseALSources
                0x00065a20        0x8 D:\oxygine-sound\dependencies\openalext\lib\android\libopenal.a(alSource.o)
 .ARM.exidx.text.startup.alc_init
                0x00065a28        0x8 D:\oxygine-sound\dependencies\openalext\lib\android\libopenal.a(ALc.o)
 .ARM.exidx.text.al_print
                0x00065a30        0x8 D:\oxygine-sound\dependencies\openalext\lib\android\libopenal.a(ALc.o)
 .ARM.exidx.text.AppendAllDeviceList
                0x00065a38        0x8 D:\oxygine-sound\dependencies\openalext\lib\android\libopenal.a(ALc.o)
 .ARM.exidx.text.AppendDeviceList
                0x00065a40        0x8 D:\oxygine-sound\dependencies\openalext\lib\android\libopenal.a(ALc.o)
 .ARM.exidx.text.AppendCaptureDeviceList
                0x00065a48        0x8 D:\oxygine-sound\dependencies\openalext\lib\android\libopenal.a(ALc.o)
 .ARM.exidx.text.SetRTPriority
                0x00065a50        0x8 D:\oxygine-sound\dependencies\openalext\lib\android\libopenal.a(ALc.o)
 .ARM.exidx.text.InitUIntMap
                0x00065a58        0x8 D:\oxygine-sound\dependencies\openalext\lib\android\libopenal.a(ALc.o)
 .ARM.exidx.text.ResetUIntMap
                0x00065a60        0x8 D:\oxygine-sound\dependencies\openalext\lib\android\libopenal.a(ALc.o)
 .ARM.exidx.text.InsertUIntMapEntry
                0x00065a68        0x8 D:\oxygine-sound\dependencies\openalext\lib\android\libopenal.a(ALc.o)
 .ARM.exidx.text.RemoveUIntMapKey
                0x00065a70        0x8 D:\oxygine-sound\dependencies\openalext\lib\android\libopenal.a(ALc.o)
 .ARM.exidx.text.LookupUIntMapKey
                0x00065a78        0x8 D:\oxygine-sound\dependencies\openalext\lib\android\libopenal.a(ALc.o)
 .ARM.exidx.text.BytesFromDevFmt
                0x00065a80        0x8 D:\oxygine-sound\dependencies\openalext\lib\android\libopenal.a(ALc.o)
 .ARM.exidx.text.ChannelsFromDevFmt
                0x00065a88        0x8 D:\oxygine-sound\dependencies\openalext\lib\android\libopenal.a(ALc.o)
 .ARM.exidx.text.DecomposeDevFormat
                0x00065a90        0x8 D:\oxygine-sound\dependencies\openalext\lib\android\libopenal.a(ALc.o)
 .ARM.exidx.text.SuspendContext
                0x00065a98        0x8 D:\oxygine-sound\dependencies\openalext\lib\android\libopenal.a(ALc.o)
 .ARM.exidx.text.ProcessContext
                0x00065aa0        0x8 D:\oxygine-sound\dependencies\openalext\lib\android\libopenal.a(ALc.o)
 .ARM.exidx.text.alcProcessContext
                0x00065aa8        0x8 D:\oxygine-sound\dependencies\openalext\lib\android\libopenal.a(ALc.o)
 .ARM.exidx.text.alcSuspendContext
                0x00065ab0        0x8 D:\oxygine-sound\dependencies\openalext\lib\android\libopenal.a(ALc.o)
 .ARM.exidx.text.alcGetThreadContext
                0x00065ab8        0x8 D:\oxygine-sound\dependencies\openalext\lib\android\libopenal.a(ALc.o)
 .ARM.exidx.text.alcGetError
                0x00065ac0        0x8 D:\oxygine-sound\dependencies\openalext\lib\android\libopenal.a(ALc.o)
 .ARM.exidx.text.alcSetError
                0x00065ac8        0x8 D:\oxygine-sound\dependencies\openalext\lib\android\libopenal.a(ALc.o)
 .ARM.exidx.text.alcGetEnumValue
                0x00065ad0        0x8 D:\oxygine-sound\dependencies\openalext\lib\android\libopenal.a(ALc.o)
 .ARM.exidx.text.alcGetProcAddress
                0x00065ad8        0x8 D:\oxygine-sound\dependencies\openalext\lib\android\libopenal.a(ALc.o)
 .ARM.exidx.text.alcDestroyContext
                0x00065ae0        0x8 D:\oxygine-sound\dependencies\openalext\lib\android\libopenal.a(ALc.o)
 .ARM.exidx.text.alcOpenDevice
                0x00065ae8        0x8 D:\oxygine-sound\dependencies\openalext\lib\android\libopenal.a(ALc.o)
 .ARM.exidx.text.alcSetThreadContext
                0x00065af0        0x8 D:\oxygine-sound\dependencies\openalext\lib\android\libopenal.a(ALc.o)
 .ARM.exidx.text.alcMakeContextCurrent
                0x00065af8        0x8 D:\oxygine-sound\dependencies\openalext\lib\android\libopenal.a(ALc.o)
 .ARM.exidx.text.alcGetContextsDevice
                0x00065b00        0x8 D:\oxygine-sound\dependencies\openalext\lib\android\libopenal.a(ALc.o)
 .ARM.exidx.text.alcCaptureCloseDevice
                0x00065b08        0x8 D:\oxygine-sound\dependencies\openalext\lib\android\libopenal.a(ALc.o)
 .ARM.exidx.text.alcCaptureOpenDevice
                0x00065b10        0x8 D:\oxygine-sound\dependencies\openalext\lib\android\libopenal.a(ALc.o)
 .ARM.exidx.text.alcCreateContext
                0x00065b18        0x8 D:\oxygine-sound\dependencies\openalext\lib\android\libopenal.a(ALc.o)
 .ARM.exidx.text.alcCaptureSamples
                0x00065b20        0x8 D:\oxygine-sound\dependencies\openalext\lib\android\libopenal.a(ALc.o)
 .ARM.exidx.text.alcCaptureStop
                0x00065b28        0x8 D:\oxygine-sound\dependencies\openalext\lib\android\libopenal.a(ALc.o)
 .ARM.exidx.text.alcCaptureStart
                0x00065b30        0x8 D:\oxygine-sound\dependencies\openalext\lib\android\libopenal.a(ALc.o)
 .ARM.exidx.text.alcIsExtensionPresent
                0x00065b38        0x8 D:\oxygine-sound\dependencies\openalext\lib\android\libopenal.a(ALc.o)
 .ARM.exidx.text.exit.alc_deinit
                0x00065b40        0x8 D:\oxygine-sound\dependencies\openalext\lib\android\libopenal.a(ALc.o)
 .ARM.exidx.text.alcCloseDevice
                0x00065b48        0x8 D:\oxygine-sound\dependencies\openalext\lib\android\libopenal.a(ALc.o)
 .ARM.exidx.text.alcGetString
                0x00065b50        0x8 D:\oxygine-sound\dependencies\openalext\lib\android\libopenal.a(ALc.o)
 .ARM.exidx.text.alcGetIntegerv
                0x00065b58        0x8 D:\oxygine-sound\dependencies\openalext\lib\android\libopenal.a(ALc.o)
 .ARM.exidx.text.GetContextSuspended
                0x00065b60        0x8 D:\oxygine-sound\dependencies\openalext\lib\android\libopenal.a(ALc.o)
 .ARM.exidx.text.alcGetCurrentContext
                0x00065b68        0x8 D:\oxygine-sound\dependencies\openalext\lib\android\libopenal.a(ALc.o)
 .ARM.exidx.text.SetDefaultChannelOrder
                0x00065b70        0x8 D:\oxygine-sound\dependencies\openalext\lib\android\libopenal.a(ALc.o)
 .ARM.exidx.text.SetDefaultWFXChannelOrder
                0x00065b78        0x8 D:\oxygine-sound\dependencies\openalext\lib\android\libopenal.a(ALc.o)
 .ARM.exidx.text.LoadConfigFromFile
                0x00065b80        0x8 D:\oxygine-sound\dependencies\openalext\lib\android\libopenal.a(alcConfig.o)
 .ARM.exidx.text.ReadALConfig
                0x00065b88        0x8 D:\oxygine-sound\dependencies\openalext\lib\android\libopenal.a(alcConfig.o)
 .ARM.exidx.text.FreeALConfig
                0x00065b90        0x8 D:\oxygine-sound\dependencies\openalext\lib\android\libopenal.a(alcConfig.o)
 .ARM.exidx.text.GetConfigValue
                0x00065b98        0x8 D:\oxygine-sound\dependencies\openalext\lib\android\libopenal.a(alcConfig.o)
 .ARM.exidx.text.ConfigValueExists
                0x00065ba0        0x8 D:\oxygine-sound\dependencies\openalext\lib\android\libopenal.a(alcConfig.o)
 .ARM.exidx.text.GetConfigValueInt
                0x00065ba8        0x8 D:\oxygine-sound\dependencies\openalext\lib\android\libopenal.a(alcConfig.o)
 .ARM.exidx.text.GetConfigValueFloat
                0x00065bb0        0x8 D:\oxygine-sound\dependencies\openalext\lib\android\libopenal.a(alcConfig.o)
 .ARM.exidx.text.GetConfigValueBool
                0x00065bb8        0x8 D:\oxygine-sound\dependencies\openalext\lib\android\libopenal.a(alcConfig.o)
 .ARM.exidx.text.CalcNonAttnSourceParams
                0x00065bc0        0x8 D:\oxygine-sound\dependencies\openalext\lib\android\libopenal.a(ALu.o)
 .ARM.exidx.text.CalcSourceParams
                0x00065bc8        0x8 D:\oxygine-sound\dependencies\openalext\lib\android\libopenal.a(ALu.o)
 .ARM.exidx.text.aluMixData
                0x00065bd0        0x8 D:\oxygine-sound\dependencies\openalext\lib\android\libopenal.a(ALu.o)
 .ARM.exidx.text.aluHandleDisconnect
                0x00065bd8        0x8 D:\oxygine-sound\dependencies\openalext\lib\android\libopenal.a(ALu.o)
 .ARM.exidx.text.bs2b_set_level
                0x00065be0        0x8 D:\oxygine-sound\dependencies\openalext\lib\android\libopenal.a(bs2b.o)
 .ARM.exidx.text.bs2b_get_level
                0x00065be8        0x8 D:\oxygine-sound\dependencies\openalext\lib\android\libopenal.a(bs2b.o)
 .ARM.exidx.text.bs2b_set_srate
                0x00065bf0        0x8 D:\oxygine-sound\dependencies\openalext\lib\android\libopenal.a(bs2b.o)
 .ARM.exidx.text.bs2b_get_srate
                0x00065bf8        0x8 D:\oxygine-sound\dependencies\openalext\lib\android\libopenal.a(bs2b.o)
 .ARM.exidx.text.bs2b_clear
                0x00065c00        0x8 D:\oxygine-sound\dependencies\openalext\lib\android\libopenal.a(bs2b.o)
 .ARM.exidx.text.bs2b_is_clear
                0x00065c08        0x8 D:\oxygine-sound\dependencies\openalext\lib\android\libopenal.a(bs2b.o)
 .ARM.exidx.text.bs2b_cross_feed
                0x00065c10        0x8 D:\oxygine-sound\dependencies\openalext\lib\android\libopenal.a(bs2b.o)
 .ARM.exidx.text.null_open_capture
                0x00065c18        0x8 D:\oxygine-sound\dependencies\openalext\lib\android\libopenal.a(null.o)
 .ARM.exidx.text.null_stop_playback
                0x00065c20        0x8 D:\oxygine-sound\dependencies\openalext\lib\android\libopenal.a(null.o)
 .ARM.exidx.text.null_close_playback
                0x00065c28        0x8 D:\oxygine-sound\dependencies\openalext\lib\android\libopenal.a(null.o)
 .ARM.exidx.text.null_open_playback
                0x00065c30        0x8 D:\oxygine-sound\dependencies\openalext\lib\android\libopenal.a(null.o)
 .ARM.exidx.text.null_reset_playback
                0x00065c38        0x8 D:\oxygine-sound\dependencies\openalext\lib\android\libopenal.a(null.o)
 .ARM.exidx.text.NullProc
                0x00065c40        0x8 D:\oxygine-sound\dependencies\openalext\lib\android\libopenal.a(null.o)
 .ARM.exidx.text.alc_null_init
                0x00065c48        0x8 D:\oxygine-sound\dependencies\openalext\lib\android\libopenal.a(null.o)
 .ARM.exidx.text.alc_null_deinit
                0x00065c50        0x8 D:\oxygine-sound\dependencies\openalext\lib\android\libopenal.a(null.o)
 .ARM.exidx.text.alc_null_probe
                0x00065c58        0x8 D:\oxygine-sound\dependencies\openalext\lib\android\libopenal.a(null.o)
 .ARM.exidx.text.SetSpeakerArrangement.constprop.0
                0x00065c60        0x8 D:\oxygine-sound\dependencies\openalext\lib\android\libopenal.a(panning.o)
 .ARM.exidx.text.aluCart2LUTpos
                0x00065c68        0x8 D:\oxygine-sound\dependencies\openalext\lib\android\libopenal.a(panning.o)
 .ARM.exidx.text.aluInitPanning
                0x00065c70        0x8 D:\oxygine-sound\dependencies\openalext\lib\android\libopenal.a(panning.o)
 .ARM.exidx.text.Mix_ALfp_6_point32
                0x00065c78        0x8 D:\oxygine-sound\dependencies\openalext\lib\android\libopenal.a(mixer.o)
 .ARM.exidx.text.Mix_ALfp_6_lerp32
                0x00065c80        0x8 D:\oxygine-sound\dependencies\openalext\lib\android\libopenal.a(mixer.o)
 .ARM.exidx.text.Mix_ALshort_6_point16
                0x00065c88        0x8 D:\oxygine-sound\dependencies\openalext\lib\android\libopenal.a(mixer.o)
 .ARM.exidx.text.Mix_ALshort_6_lerp16
                0x00065c90        0x8 D:\oxygine-sound\dependencies\openalext\lib\android\libopenal.a(mixer.o)
 .ARM.exidx.text.Mix_ALubyte_6_point8
                0x00065c98        0x8 D:\oxygine-sound\dependencies\openalext\lib\android\libopenal.a(mixer.o)
 .ARM.exidx.text.Mix_ALubyte_6_lerp8
                0x00065ca0        0x8 D:\oxygine-sound\dependencies\openalext\lib\android\libopenal.a(mixer.o)
 .ARM.exidx.text.Mix_ALfp_7_point32
                0x00065ca8        0x8 D:\oxygine-sound\dependencies\openalext\lib\android\libopenal.a(mixer.o)
 .ARM.exidx.text.Mix_ALfp_7_lerp32
                0x00065cb0        0x8 D:\oxygine-sound\dependencies\openalext\lib\android\libopenal.a(mixer.o)
 .ARM.exidx.text.Mix_ALshort_7_point16
                0x00065cb8        0x8 D:\oxygine-sound\dependencies\openalext\lib\android\libopenal.a(mixer.o)
 .ARM.exidx.text.Mix_ALshort_7_lerp16
                0x00065cc0        0x8 D:\oxygine-sound\dependencies\openalext\lib\android\libopenal.a(mixer.o)
 .ARM.exidx.text.Mix_ALubyte_7_point8
                0x00065cc8        0x8 D:\oxygine-sound\dependencies\openalext\lib\android\libopenal.a(mixer.o)
 .ARM.exidx.text.Mix_ALubyte_7_lerp8
                0x00065cd0        0x8 D:\oxygine-sound\dependencies\openalext\lib\android\libopenal.a(mixer.o)
 .ARM.exidx.text.Mix_ALfp_8_point32
                0x00065cd8        0x8 D:\oxygine-sound\dependencies\openalext\lib\android\libopenal.a(mixer.o)
 .ARM.exidx.text.Mix_ALfp_8_lerp32
                0x00065ce0        0x8 D:\oxygine-sound\dependencies\openalext\lib\android\libopenal.a(mixer.o)
 .ARM.exidx.text.Mix_ALshort_8_point16
                0x00065ce8        0x8 D:\oxygine-sound\dependencies\openalext\lib\android\libopenal.a(mixer.o)
 .ARM.exidx.text.Mix_ALshort_8_lerp16
                0x00065cf0        0x8 D:\oxygine-sound\dependencies\openalext\lib\android\libopenal.a(mixer.o)
 .ARM.exidx.text.Mix_ALubyte_8_point8
                0x00065cf8        0x8 D:\oxygine-sound\dependencies\openalext\lib\android\libopenal.a(mixer.o)
 .ARM.exidx.text.Mix_ALubyte_8_lerp8
                0x00065d00        0x8 D:\oxygine-sound\dependencies\openalext\lib\android\libopenal.a(mixer.o)
 .ARM.exidx.text.Mix_point
                0x00065d08        0x8 D:\oxygine-sound\dependencies\openalext\lib\android\libopenal.a(mixer.o)
 .ARM.exidx.text.Mix_ALfp_7_cubic32
                0x00065d10        0x8 D:\oxygine-sound\dependencies\openalext\lib\android\libopenal.a(mixer.o)
 .ARM.exidx.text.Mix_ALfp_8_cubic32
                0x00065d18        0x8 D:\oxygine-sound\dependencies\openalext\lib\android\libopenal.a(mixer.o)
 .ARM.exidx.text.Mix_ALfp_6_cubic32
                0x00065d20        0x8 D:\oxygine-sound\dependencies\openalext\lib\android\libopenal.a(mixer.o)
 .ARM.exidx.text.Mix_ALfp_1_cubic32
                0x00065d28        0x8 D:\oxygine-sound\dependencies\openalext\lib\android\libopenal.a(mixer.o)
 .ARM.exidx.text.Mix_ALshort_7_cubic16
                0x00065d30        0x8 D:\oxygine-sound\dependencies\openalext\lib\android\libopenal.a(mixer.o)
 .ARM.exidx.text.Mix_ALshort_8_cubic16
                0x00065d38        0x8 D:\oxygine-sound\dependencies\openalext\lib\android\libopenal.a(mixer.o)
 .ARM.exidx.text.Mix_ALshort_6_cubic16
                0x00065d40        0x8 D:\oxygine-sound\dependencies\openalext\lib\android\libopenal.a(mixer.o)
 .ARM.exidx.text.Mix_ALshort_1_cubic16
                0x00065d48        0x8 D:\oxygine-sound\dependencies\openalext\lib\android\libopenal.a(mixer.o)
 .ARM.exidx.text.Mix_ALubyte_7_cubic8
                0x00065d50        0x8 D:\oxygine-sound\dependencies\openalext\lib\android\libopenal.a(mixer.o)
 .ARM.exidx.text.Mix_ALubyte_8_cubic8
                0x00065d58        0x8 D:\oxygine-sound\dependencies\openalext\lib\android\libopenal.a(mixer.o)
 .ARM.exidx.text.Mix_ALubyte_6_cubic8
                0x00065d60        0x8 D:\oxygine-sound\dependencies\openalext\lib\android\libopenal.a(mixer.o)
 .ARM.exidx.text.Mix_ALubyte_1_cubic8
                0x00065d68        0x8 D:\oxygine-sound\dependencies\openalext\lib\android\libopenal.a(mixer.o)
 .ARM.exidx.text.Mix_cubic
                0x00065d70        0x8 D:\oxygine-sound\dependencies\openalext\lib\android\libopenal.a(mixer.o)
 .ARM.exidx.text.MixSource
                0x00065d78        0x8 D:\oxygine-sound\dependencies\openalext\lib\android\libopenal.a(mixer.o)
 .ARM.exidx.text.android_open_capture
                0x00065d80        0x8 D:\oxygine-sound\dependencies\openalext\lib\android\libopenal.a(audiotrack.o)
 .ARM.exidx.text.android_close_capture
                0x00065d88        0x8 D:\oxygine-sound\dependencies\openalext\lib\android\libopenal.a(audiotrack.o)
 .ARM.exidx.text.android_start_capture
                0x00065d90        0x8 D:\oxygine-sound\dependencies\openalext\lib\android\libopenal.a(audiotrack.o)
 .ARM.exidx.text.android_stop_capture
                0x00065d98        0x8 D:\oxygine-sound\dependencies\openalext\lib\android\libopenal.a(audiotrack.o)
 .ARM.exidx.text.android_capture_samples
                0x00065da0        0x8 D:\oxygine-sound\dependencies\openalext\lib\android\libopenal.a(audiotrack.o)
 .ARM.exidx.text.android_available_samples
                0x00065da8        0x8 D:\oxygine-sound\dependencies\openalext\lib\android\libopenal.a(audiotrack.o)
 .ARM.exidx.text.alc_audiotrack_suspend
                0x00065db0        0x8 D:\oxygine-sound\dependencies\openalext\lib\android\libopenal.a(audiotrack.o)
 .ARM.exidx.text.android_stop_playback
                0x00065db8        0x8 D:\oxygine-sound\dependencies\openalext\lib\android\libopenal.a(audiotrack.o)
 .ARM.exidx.text.android_reset_playback
                0x00065dc0        0x8 D:\oxygine-sound\dependencies\openalext\lib\android\libopenal.a(audiotrack.o)
 .ARM.exidx.text.thread_function
                0x00065dc8        0x8 D:\oxygine-sound\dependencies\openalext\lib\android\libopenal.a(audiotrack.o)
 .ARM.exidx.text.android_close_playback
                0x00065dd0        0x8 D:\oxygine-sound\dependencies\openalext\lib\android\libopenal.a(audiotrack.o)
 .ARM.exidx.text.android_open_playback
                0x00065dd8        0x8 D:\oxygine-sound\dependencies\openalext\lib\android\libopenal.a(audiotrack.o)
 .ARM.exidx.text.alc_audiotrack_resume
                0x00065de0        0x8 D:\oxygine-sound\dependencies\openalext\lib\android\libopenal.a(audiotrack.o)
 .ARM.exidx.text.alc_audiotrack_init
                0x00065de8        0x8 D:\oxygine-sound\dependencies\openalext\lib\android\libopenal.a(audiotrack.o)
 .ARM.exidx.text.alc_audiotrack_deinit
                0x00065df0        0x8 D:\oxygine-sound\dependencies\openalext\lib\android\libopenal.a(audiotrack.o)
 .ARM.exidx.text.alc_audiotrack_probe
                0x00065df8        0x8 D:\oxygine-sound\dependencies\openalext\lib\android\libopenal.a(audiotrack.o)
 .ARM.exidx.text.opensles_available_samples
                0x00065e00        0x8 D:\oxygine-sound\dependencies\openalext\lib\android\libopenal.a(opensles.o)
 .ARM.exidx.text.opensles_capture_samples
                0x00065e08        0x8 D:\oxygine-sound\dependencies\openalext\lib\android\libopenal.a(opensles.o)
 .ARM.exidx.text.opensles_stop_capture
                0x00065e10        0x8 D:\oxygine-sound\dependencies\openalext\lib\android\libopenal.a(opensles.o)
 .ARM.exidx.text.opensles_start_capture
                0x00065e18        0x8 D:\oxygine-sound\dependencies\openalext\lib\android\libopenal.a(opensles.o)
 .ARM.exidx.text.opensles_close_capture
                0x00065e20        0x8 D:\oxygine-sound\dependencies\openalext\lib\android\libopenal.a(opensles.o)
 .ARM.exidx.text.opensles_open_capture
                0x00065e28        0x8 D:\oxygine-sound\dependencies\openalext\lib\android\libopenal.a(opensles.o)
 .ARM.exidx.text.opensles_stop_playback
                0x00065e30        0x8 D:\oxygine-sound\dependencies\openalext\lib\android\libopenal.a(opensles.o)
 .ARM.exidx.text.opensles_close_playback
                0x00065e38        0x8 D:\oxygine-sound\dependencies\openalext\lib\android\libopenal.a(opensles.o)
 .ARM.exidx.text.playback_function
                0x00065e40        0x8 D:\oxygine-sound\dependencies\openalext\lib\android\libopenal.a(opensles.o)
 .ARM.exidx.text.opensles_callback
                0x00065e48        0x8 D:\oxygine-sound\dependencies\openalext\lib\android\libopenal.a(opensles.o)
 .ARM.exidx.text.alc_opensles_set_java_vm
                0x00065e50        0x8 D:\oxygine-sound\dependencies\openalext\lib\android\libopenal.a(opensles.o)
 .ARM.exidx.text.alc_opensles_suspend
                0x00065e58        0x8 D:\oxygine-sound\dependencies\openalext\lib\android\libopenal.a(opensles.o)
 .ARM.exidx.text.alc_opensles_init_extradata
                0x00065e60        0x8 D:\oxygine-sound\dependencies\openalext\lib\android\libopenal.a(opensles.o)
 .ARM.exidx.text.opensles_reset_playback
                0x00065e68        0x8 D:\oxygine-sound\dependencies\openalext\lib\android\libopenal.a(opensles.o)
 .ARM.exidx.text.alc_opensles_resume
                0x00065e70        0x8 D:\oxygine-sound\dependencies\openalext\lib\android\libopenal.a(opensles.o)
 .ARM.exidx.text.alc_opensles_create_native_audio_engine
                0x00065e78        0x8 D:\oxygine-sound\dependencies\openalext\lib\android\libopenal.a(opensles.o)
 .ARM.exidx.text.alc_opensles_init
                0x00065e80        0x8 D:\oxygine-sound\dependencies\openalext\lib\android\libopenal.a(opensles.o)
 .ARM.exidx.text.alc_opensles_deinit
                0x00065e88        0x8 D:\oxygine-sound\dependencies\openalext\lib\android\libopenal.a(opensles.o)
 .ARM.exidx.text.alc_opensles_probe
                0x00065e90        0x8 D:\oxygine-sound\dependencies\openalext\lib\android\libopenal.a(opensles.o)
 .ARM.exidx.text.opensles_open_playback
                0x00065e98        0x8 D:\oxygine-sound\dependencies\openalext\lib\android\libopenal.a(opensles.o)
 .ARM.exidx.text.NoneDeviceUpdate
                0x00065ea0        0x8 D:\oxygine-sound\dependencies\openalext\lib\android\libopenal.a(alAuxEffectSlot.o)
 .ARM.exidx.text.NoneUpdate
                0x00065ea8        0x8 D:\oxygine-sound\dependencies\openalext\lib\android\libopenal.a(alAuxEffectSlot.o)
 .ARM.exidx.text.NoneProcess
                0x00065eb0        0x8 D:\oxygine-sound\dependencies\openalext\lib\android\libopenal.a(alAuxEffectSlot.o)
 .ARM.exidx.text.NoneDestroy
                0x00065eb8        0x8 D:\oxygine-sound\dependencies\openalext\lib\android\libopenal.a(alAuxEffectSlot.o)
 .ARM.exidx.text.alDeleteAuxiliaryEffectSlots
                0x00065ec0        0x8 D:\oxygine-sound\dependencies\openalext\lib\android\libopenal.a(alAuxEffectSlot.o)
 .ARM.exidx.text.alIsAuxiliaryEffectSlot
                0x00065ec8        0x8 D:\oxygine-sound\dependencies\openalext\lib\android\libopenal.a(alAuxEffectSlot.o)
 .ARM.exidx.text.alAuxiliaryEffectSlotf
                0x00065ed0        0x8 D:\oxygine-sound\dependencies\openalext\lib\android\libopenal.a(alAuxEffectSlot.o)
 .ARM.exidx.text.alAuxiliaryEffectSlotfv
                0x00065ed8        0x8 D:\oxygine-sound\dependencies\openalext\lib\android\libopenal.a(alAuxEffectSlot.o)
 .ARM.exidx.text.alGetAuxiliaryEffectSloti
                0x00065ee0        0x8 D:\oxygine-sound\dependencies\openalext\lib\android\libopenal.a(alAuxEffectSlot.o)
 .ARM.exidx.text.alGetAuxiliaryEffectSlotiv
                0x00065ee8        0x8 D:\oxygine-sound\dependencies\openalext\lib\android\libopenal.a(alAuxEffectSlot.o)
 .ARM.exidx.text.alGetAuxiliaryEffectSlotf
                0x00065ef0        0x8 D:\oxygine-sound\dependencies\openalext\lib\android\libopenal.a(alAuxEffectSlot.o)
 .ARM.exidx.text.alGetAuxiliaryEffectSlotfv
                0x00065ef8        0x8 D:\oxygine-sound\dependencies\openalext\lib\android\libopenal.a(alAuxEffectSlot.o)
 .ARM.exidx.text.NoneCreate
                0x00065f00        0x8 D:\oxygine-sound\dependencies\openalext\lib\android\libopenal.a(alAuxEffectSlot.o)
 .ARM.exidx.text.alAuxiliaryEffectSloti
                0x00065f08        0x8 D:\oxygine-sound\dependencies\openalext\lib\android\libopenal.a(alAuxEffectSlot.o)
 .ARM.exidx.text.alAuxiliaryEffectSlotiv
                0x00065f10        0x8 D:\oxygine-sound\dependencies\openalext\lib\android\libopenal.a(alAuxEffectSlot.o)
 .ARM.exidx.text.alGenAuxiliaryEffectSlots
                0x00065f18        0x8 D:\oxygine-sound\dependencies\openalext\lib\android\libopenal.a(alAuxEffectSlot.o)
 .ARM.exidx.text.ReleaseALAuxiliaryEffectSlots
                0x00065f20        0x8 D:\oxygine-sound\dependencies\openalext\lib\android\libopenal.a(alAuxEffectSlot.o)
 .ARM.exidx.text.alGenDatabuffersEXT
                0x00065f28        0x8 D:\oxygine-sound\dependencies\openalext\lib\android\libopenal.a(alDatabuffer.o)
 .ARM.exidx.text.alDeleteDatabuffersEXT
                0x00065f30        0x8 D:\oxygine-sound\dependencies\openalext\lib\android\libopenal.a(alDatabuffer.o)
 .ARM.exidx.text.alIsDatabufferEXT
                0x00065f38        0x8 D:\oxygine-sound\dependencies\openalext\lib\android\libopenal.a(alDatabuffer.o)
 .ARM.exidx.text.alDatabufferDataEXT
                0x00065f40        0x8 D:\oxygine-sound\dependencies\openalext\lib\android\libopenal.a(alDatabuffer.o)
 .ARM.exidx.text.alDatabufferSubDataEXT
                0x00065f48        0x8 D:\oxygine-sound\dependencies\openalext\lib\android\libopenal.a(alDatabuffer.o)
 .ARM.exidx.text.alGetDatabufferSubDataEXT
                0x00065f50        0x8 D:\oxygine-sound\dependencies\openalext\lib\android\libopenal.a(alDatabuffer.o)
 .ARM.exidx.text.alDatabufferfEXT
                0x00065f58        0x8 D:\oxygine-sound\dependencies\openalext\lib\android\libopenal.a(alDatabuffer.o)
 .ARM.exidx.text.alDatabufferfvEXT
                0x00065f60        0x8 D:\oxygine-sound\dependencies\openalext\lib\android\libopenal.a(alDatabuffer.o)
 .ARM.exidx.text.alDatabufferiEXT
                0x00065f68        0x8 D:\oxygine-sound\dependencies\openalext\lib\android\libopenal.a(alDatabuffer.o)
 .ARM.exidx.text.alDatabufferivEXT
                0x00065f70        0x8 D:\oxygine-sound\dependencies\openalext\lib\android\libopenal.a(alDatabuffer.o)
 .ARM.exidx.text.alGetDatabufferfEXT
                0x00065f78        0x8 D:\oxygine-sound\dependencies\openalext\lib\android\libopenal.a(alDatabuffer.o)
 .ARM.exidx.text.alGetDatabufferfvEXT
                0x00065f80        0x8 D:\oxygine-sound\dependencies\openalext\lib\android\libopenal.a(alDatabuffer.o)
 .ARM.exidx.text.alGetDatabufferiEXT
                0x00065f88        0x8 D:\oxygine-sound\dependencies\openalext\lib\android\libopenal.a(alDatabuffer.o)
 .ARM.exidx.text.alGetDatabufferivEXT
                0x00065f90        0x8 D:\oxygine-sound\dependencies\openalext\lib\android\libopenal.a(alDatabuffer.o)
 .ARM.exidx.text.alSelectDatabufferEXT
                0x00065f98        0x8 D:\oxygine-sound\dependencies\openalext\lib\android\libopenal.a(alDatabuffer.o)
 .ARM.exidx.text.alMapDatabufferEXT
                0x00065fa0        0x8 D:\oxygine-sound\dependencies\openalext\lib\android\libopenal.a(alDatabuffer.o)
 .ARM.exidx.text.alUnmapDatabufferEXT
                0x00065fa8        0x8 D:\oxygine-sound\dependencies\openalext\lib\android\libopenal.a(alDatabuffer.o)
 .ARM.exidx.text.ReleaseALDatabuffers
                0x00065fb0        0x8 D:\oxygine-sound\dependencies\openalext\lib\android\libopenal.a(alDatabuffer.o)
 .ARM.exidx.text.alGenEffects
                0x00065fb8        0x8 D:\oxygine-sound\dependencies\openalext\lib\android\libopenal.a(alEffect.o)
 .ARM.exidx.text.alDeleteEffects
                0x00065fc0        0x8 D:\oxygine-sound\dependencies\openalext\lib\android\libopenal.a(alEffect.o)
 .ARM.exidx.text.alIsEffect
                0x00065fc8        0x8 D:\oxygine-sound\dependencies\openalext\lib\android\libopenal.a(alEffect.o)
 .ARM.exidx.text.alEffectf
                0x00065fd0        0x8 D:\oxygine-sound\dependencies\openalext\lib\android\libopenal.a(alEffect.o)
 .ARM.exidx.text.alEffecti
                0x00065fd8        0x8 D:\oxygine-sound\dependencies\openalext\lib\android\libopenal.a(alEffect.o)
 .ARM.exidx.text.alEffectiv
                0x00065fe0        0x8 D:\oxygine-sound\dependencies\openalext\lib\android\libopenal.a(alEffect.o)
 .ARM.exidx.text.alEffectfv
                0x00065fe8        0x8 D:\oxygine-sound\dependencies\openalext\lib\android\libopenal.a(alEffect.o)
 .ARM.exidx.text.alGetEffecti
                0x00065ff0        0x8 D:\oxygine-sound\dependencies\openalext\lib\android\libopenal.a(alEffect.o)
 .ARM.exidx.text.alGetEffectiv
                0x00065ff8        0x8 D:\oxygine-sound\dependencies\openalext\lib\android\libopenal.a(alEffect.o)
 .ARM.exidx.text.alGetEffectf
                0x00066000        0x8 D:\oxygine-sound\dependencies\openalext\lib\android\libopenal.a(alEffect.o)
 .ARM.exidx.text.alGetEffectfv
                0x00066008        0x8 D:\oxygine-sound\dependencies\openalext\lib\android\libopenal.a(alEffect.o)
 .ARM.exidx.text.ReleaseALEffects
                0x00066010        0x8 D:\oxygine-sound\dependencies\openalext\lib\android\libopenal.a(alEffect.o)
 .ARM.exidx.text.alIsExtensionPresent
                0x00066018        0x8 D:\oxygine-sound\dependencies\openalext\lib\android\libopenal.a(alExtension.o)
 .ARM.exidx.text.alGetProcAddress
                0x00066020        0x8 D:\oxygine-sound\dependencies\openalext\lib\android\libopenal.a(alExtension.o)
 .ARM.exidx.text.alGetEnumValue
                0x00066028        0x8 D:\oxygine-sound\dependencies\openalext\lib\android\libopenal.a(alExtension.o)
 .ARM.exidx.text.alGenFilters
                0x00066030        0x8 D:\oxygine-sound\dependencies\openalext\lib\android\libopenal.a(alFilter.o)
 .ARM.exidx.text.alDeleteFilters
                0x00066038        0x8 D:\oxygine-sound\dependencies\openalext\lib\android\libopenal.a(alFilter.o)
 .ARM.exidx.text.alIsFilter
                0x00066040        0x8 D:\oxygine-sound\dependencies\openalext\lib\android\libopenal.a(alFilter.o)
 .ARM.exidx.text.alFilteri
                0x00066048        0x8 D:\oxygine-sound\dependencies\openalext\lib\android\libopenal.a(alFilter.o)
 .ARM.exidx.text.alFilteriv
                0x00066050        0x8 D:\oxygine-sound\dependencies\openalext\lib\android\libopenal.a(alFilter.o)
 .ARM.exidx.text.alFilterf
                0x00066058        0x8 D:\oxygine-sound\dependencies\openalext\lib\android\libopenal.a(alFilter.o)
 .ARM.exidx.text.alFilterfv
                0x00066060        0x8 D:\oxygine-sound\dependencies\openalext\lib\android\libopenal.a(alFilter.o)
 .ARM.exidx.text.alGetFilteri
                0x00066068        0x8 D:\oxygine-sound\dependencies\openalext\lib\android\libopenal.a(alFilter.o)
 .ARM.exidx.text.alGetFilteriv
                0x00066070        0x8 D:\oxygine-sound\dependencies\openalext\lib\android\libopenal.a(alFilter.o)
 .ARM.exidx.text.alGetFilterf
                0x00066078        0x8 D:\oxygine-sound\dependencies\openalext\lib\android\libopenal.a(alFilter.o)
 .ARM.exidx.text.alGetFilterfv
                0x00066080        0x8 D:\oxygine-sound\dependencies\openalext\lib\android\libopenal.a(alFilter.o)
 .ARM.exidx.text.ReleaseALFilters
                0x00066088        0x8 D:\oxygine-sound\dependencies\openalext\lib\android\libopenal.a(alFilter.o)
 .ARM.exidx.text.alListenerf
                0x00066090        0x8 D:\oxygine-sound\dependencies\openalext\lib\android\libopenal.a(alListener.o)
 .ARM.exidx.text.alListener3f
                0x00066098        0x8 D:\oxygine-sound\dependencies\openalext\lib\android\libopenal.a(alListener.o)
 .ARM.exidx.text.alListenerfv
                0x000660a0        0x8 D:\oxygine-sound\dependencies\openalext\lib\android\libopenal.a(alListener.o)
 .ARM.exidx.text.alListeneri
                0x000660a8        0x8 D:\oxygine-sound\dependencies\openalext\lib\android\libopenal.a(alListener.o)
 .ARM.exidx.text.alListener3i
                0x000660b0        0x8 D:\oxygine-sound\dependencies\openalext\lib\android\libopenal.a(alListener.o)
 .ARM.exidx.text.alListeneriv
                0x000660b8        0x8 D:\oxygine-sound\dependencies\openalext\lib\android\libopenal.a(alListener.o)
 .ARM.exidx.text.alGetListenerf
                0x000660c0        0x8 D:\oxygine-sound\dependencies\openalext\lib\android\libopenal.a(alListener.o)
 .ARM.exidx.text.alGetListener3f
                0x000660c8        0x8 D:\oxygine-sound\dependencies\openalext\lib\android\libopenal.a(alListener.o)
 .ARM.exidx.text.alGetListenerfv
                0x000660d0        0x8 D:\oxygine-sound\dependencies\openalext\lib\android\libopenal.a(alListener.o)
 .ARM.exidx.text.alGetListeneri
                0x000660d8        0x8 D:\oxygine-sound\dependencies\openalext\lib\android\libopenal.a(alListener.o)
 .ARM.exidx.text.alGetListener3i
                0x000660e0        0x8 D:\oxygine-sound\dependencies\openalext\lib\android\libopenal.a(alListener.o)
 .ARM.exidx.text.alGetListeneriv
                0x000660e8        0x8 D:\oxygine-sound\dependencies\openalext\lib\android\libopenal.a(alListener.o)
 .ARM.exidx.text.alEnable
                0x000660f0        0x8 D:\oxygine-sound\dependencies\openalext\lib\android\libopenal.a(alState.o)
 .ARM.exidx.text.alDisable
                0x000660f8        0x8 D:\oxygine-sound\dependencies\openalext\lib\android\libopenal.a(alState.o)
 .ARM.exidx.text.alIsEnabled
                0x00066100        0x8 D:\oxygine-sound\dependencies\openalext\lib\android\libopenal.a(alState.o)
 .ARM.exidx.text.alGetBoolean
                0x00066108        0x8 D:\oxygine-sound\dependencies\openalext\lib\android\libopenal.a(alState.o)
 .ARM.exidx.text.alGetDouble
                0x00066110        0x8 D:\oxygine-sound\dependencies\openalext\lib\android\libopenal.a(alState.o)
 .ARM.exidx.text.alGetFloat
                0x00066118        0x8 D:\oxygine-sound\dependencies\openalext\lib\android\libopenal.a(alState.o)
 .ARM.exidx.text.alGetInteger
                0x00066120        0x8 D:\oxygine-sound\dependencies\openalext\lib\android\libopenal.a(alState.o)
 .ARM.exidx.text.alGetBooleanv
                0x00066128        0x8 D:\oxygine-sound\dependencies\openalext\lib\android\libopenal.a(alState.o)
 .ARM.exidx.text.alGetDoublev
                0x00066130        0x8 D:\oxygine-sound\dependencies\openalext\lib\android\libopenal.a(alState.o)
 .ARM.exidx.text.alGetFloatv
                0x00066138        0x8 D:\oxygine-sound\dependencies\openalext\lib\android\libopenal.a(alState.o)
 .ARM.exidx.text.alGetIntegerv
                0x00066140        0x8 D:\oxygine-sound\dependencies\openalext\lib\android\libopenal.a(alState.o)
 .ARM.exidx.text.alGetString
                0x00066148        0x8 D:\oxygine-sound\dependencies\openalext\lib\android\libopenal.a(alState.o)
 .ARM.exidx.text.alDopplerFactor
                0x00066150        0x8 D:\oxygine-sound\dependencies\openalext\lib\android\libopenal.a(alState.o)
 .ARM.exidx.text.alDopplerVelocity
                0x00066158        0x8 D:\oxygine-sound\dependencies\openalext\lib\android\libopenal.a(alState.o)
 .ARM.exidx.text.alSpeedOfSound
                0x00066160        0x8 D:\oxygine-sound\dependencies\openalext\lib\android\libopenal.a(alState.o)
 .ARM.exidx.text.alDistanceModel
                0x00066168        0x8 D:\oxygine-sound\dependencies\openalext\lib\android\libopenal.a(alState.o)
 .ARM.exidx.text.EchoProcess
                0x00066170        0x8 D:\oxygine-sound\dependencies\openalext\lib\android\libopenal.a(alcEcho.o)
 .ARM.exidx.text.EchoUpdate
                0x00066178        0x8 D:\oxygine-sound\dependencies\openalext\lib\android\libopenal.a(alcEcho.o)
 .ARM.exidx.text.EchoDeviceUpdate
                0x00066180        0x8 D:\oxygine-sound\dependencies\openalext\lib\android\libopenal.a(alcEcho.o)
 .ARM.exidx.text.EchoDestroy
                0x00066188        0x8 D:\oxygine-sound\dependencies\openalext\lib\android\libopenal.a(alcEcho.o)
 .ARM.exidx.text.EchoCreate
                0x00066190        0x8 D:\oxygine-sound\dependencies\openalext\lib\android\libopenal.a(alcEcho.o)
 .ARM.exidx.text.ModulatorDeviceUpdate
                0x00066198        0x8 D:\oxygine-sound\dependencies\openalext\lib\android\libopenal.a(alcModulator.o)
 .ARM.exidx.text.ModulatorProcess
                0x000661a0        0x8 D:\oxygine-sound\dependencies\openalext\lib\android\libopenal.a(alcModulator.o)
 .ARM.exidx.text.ModulatorUpdate
                0x000661a8        0x8 D:\oxygine-sound\dependencies\openalext\lib\android\libopenal.a(alcModulator.o)
 .ARM.exidx.text.ModulatorDestroy
                0x000661b0        0x8 D:\oxygine-sound\dependencies\openalext\lib\android\libopenal.a(alcModulator.o)
 .ARM.exidx.text.ModulatorCreate
                0x000661b8        0x8 D:\oxygine-sound\dependencies\openalext\lib\android\libopenal.a(alcModulator.o)
 .ARM.exidx.text.AllocLines
                0x000661c0        0x8 D:\oxygine-sound\dependencies\openalext\lib\android\libopenal.a(alcReverb.o)
 .ARM.exidx.text.EAXVerbDeviceUpdate
                0x000661c8        0x8 D:\oxygine-sound\dependencies\openalext\lib\android\libopenal.a(alcReverb.o)
 .ARM.exidx.text.VerbDestroy
                0x000661d0        0x8 D:\oxygine-sound\dependencies\openalext\lib\android\libopenal.a(alcReverb.o)
 .ARM.exidx.text.VerbDeviceUpdate
                0x000661d8        0x8 D:\oxygine-sound\dependencies\openalext\lib\android\libopenal.a(alcReverb.o)
 .ARM.exidx.text.LateReverb
                0x000661e0        0x8 D:\oxygine-sound\dependencies\openalext\lib\android\libopenal.a(alcReverb.o)
 .ARM.exidx.text.EAXVerbProcess
                0x000661e8        0x8 D:\oxygine-sound\dependencies\openalext\lib\android\libopenal.a(alcReverb.o)
 .ARM.exidx.text.EAXVerbUpdate
                0x000661f0        0x8 D:\oxygine-sound\dependencies\openalext\lib\android\libopenal.a(alcReverb.o)
 .ARM.exidx.text.VerbProcess
                0x000661f8        0x8 D:\oxygine-sound\dependencies\openalext\lib\android\libopenal.a(alcReverb.o)
 .ARM.exidx.text.VerbUpdate
                0x00066200        0x8 D:\oxygine-sound\dependencies\openalext\lib\android\libopenal.a(alcReverb.o)
 .ARM.exidx.text.VerbCreate
                0x00066208        0x8 D:\oxygine-sound\dependencies\openalext\lib\android\libopenal.a(alcReverb.o)
 .ARM.exidx.text.EAXVerbCreate
                0x00066210        0x8 D:\oxygine-sound\dependencies\openalext\lib\android\libopenal.a(alcReverb.o)
 .ARM.exidx.text.StarterFunc
                0x00066218        0x8 D:\oxygine-sound\dependencies\openalext\lib\android\libopenal.a(alcThread.o)
 .ARM.exidx.text.StartThread
                0x00066220        0x8 D:\oxygine-sound\dependencies\openalext\lib\android\libopenal.a(alcThread.o)
 .ARM.exidx.text.StopThread
                0x00066228        0x8 D:\oxygine-sound\dependencies\openalext\lib\android\libopenal.a(alcThread.o)
 .ARM.exidx     0x00066230       0x10 d:/android/android-ndk-r8e/toolchains/arm-linux-androideabi-4.4.3/prebuilt/windows/bin/../lib/gcc/arm-linux-androideabi/4.4.3\libgcc.a(bpabi.o)
 .ARM.exidx     0x00066240       0xa0 d:/android/android-ndk-r8e/toolchains/arm-linux-androideabi-4.4.3/prebuilt/windows/bin/../lib/gcc/arm-linux-androideabi/4.4.3\libgcc.a(unwind-arm.o)
 .ARM.exidx     0x000662e0       0x38 d:/android/android-ndk-r8e/toolchains/arm-linux-androideabi-4.4.3/prebuilt/windows/bin/../lib/gcc/arm-linux-androideabi/4.4.3\libgcc.a(pr-support.o)
 .ARM.exidx     0x00066318        0x8 d:/android/android-ndk-r8e/toolchains/arm-linux-androideabi-4.4.3/prebuilt/windows/bin/../lib/gcc/arm-linux-androideabi/4.4.3\libgcc.a(_divdi3.o)
 .ARM.exidx     0x00066320        0x8 d:/android/android-ndk-r8e/toolchains/arm-linux-androideabi-4.4.3/prebuilt/windows/bin/../lib/gcc/arm-linux-androideabi/4.4.3\libgcc.a(_udivdi3.o)
                0x00066328                __exidx_end = .

.eh_frame_hdr
 *(.eh_frame_hdr)

.eh_frame
 *(.eh_frame)

.gcc_except_table
 *(.gcc_except_table .gcc_except_table.*)
                0x00066328                . = (ALIGN (0x1000) - ((0x1000 - .) & 0xfff))
                0x00067274                . = (0x1000 DATA_SEGMENT_ALIGN 0x1000)

.eh_frame
 *(.eh_frame)

.gcc_except_table
 *(.gcc_except_table .gcc_except_table.*)

.tdata
 *(.tdata .tdata.* .gnu.linkonce.td.*)

.tbss
 *(.tbss .tbss.* .gnu.linkonce.tb.*)
 *(.tcommon)

.preinit_array
 *(.preinit_array)

.init_array     0x00067274        0x8
 *(SORT(.init_array.*))
 *(.init_array)
 .init_array    0x00067274        0x4 D:\oxygine-sound\dependencies\openalext\lib\android\libopenal.a(ALc.o)
 .init_array    0x00067278        0x4 d:/android/android-ndk-r8e/platforms/android-9/arch-arm/usr/lib/crtend_so.o

.fini_array     0x0006727c        0xc
 *(.fini_array)
 .fini_array    0x0006727c        0x4 d:/android/android-ndk-r8e/platforms/android-9/arch-arm/usr/lib/crtbegin_so.o
 .fini_array    0x00067280        0x4 D:\oxygine-sound\dependencies\openalext\lib\android\libopenal.a(ALc.o)
 .fini_array    0x00067284        0x4 d:/android/android-ndk-r8e/platforms/android-9/arch-arm/usr/lib/crtend_so.o
 *(SORT(.fini_array.*))

.ctors
 *crtbegin.o(.ctors)
 *crtbegin?.o(.ctors)
 *(EXCLUDE_FILE(*crtend?.o *crtend.o) .ctors)
 *(SORT(.ctors.*))
 *(.ctors)

.dtors
 *crtbegin.o(.dtors)
 *crtbegin?.o(.dtors)
 *(EXCLUDE_FILE(*crtend?.o *crtend.o) .dtors)
 *(SORT(.dtors.*))
 *(.dtors)

.jcr
 *(.jcr)

.data.rel.ro    0x00067288      0xa78
 *(.data.rel.ro.local* .gnu.linkonce.d.rel.ro.local.*)
 .data.rel.ro.local
                0x00067288       0xf8 D:\oxygine-sound\dependencies\openalext\lib\android\libopenal.a(ALc.o)
 .data.rel.ro.local
                0x00067380       0x28 D:\oxygine-sound\dependencies\openalext\lib\android\libopenal.a(audiotrack.o)
 .data.rel.ro.local
                0x000673a8      0x540 D:\oxygine-sound\dependencies\openalext\lib\android\libopenal.a(alExtension.o)
 *(.data.rel.ro* .gnu.linkonce.d.rel.ro.*)
 .data.rel.ro   0x000678e8      0x418 D:\oxygine-sound\dependencies\openalext\lib\android\libopenal.a(ALc.o)

.dynamic        0x00067d00       0xf0
 *(.dynamic)
 .dynamic       0x00067d00       0xf0 d:/android/android-ndk-r8e/platforms/android-9/arch-arm/usr/lib/crtbegin_so.o
                0x00067d00                _DYNAMIC

.got            0x00067df0      0x210
 *(.got.plt)
 .got.plt       0x00067df0      0x14c d:/android/android-ndk-r8e/platforms/android-9/arch-arm/usr/lib/crtbegin_so.o
                0x00067df0                _GLOBAL_OFFSET_TABLE_
 *(.got)
 .got           0x00067f3c       0xc4 d:/android/android-ndk-r8e/platforms/android-9/arch-arm/usr/lib/crtbegin_so.o
                0x00068000                . = (. DATA_SEGMENT_RELRO_END 0x0)

.data           0x00068000      0x1ac
                0x00068000                __data_start = .
 *(.data .data.* .gnu.linkonce.d.*)
 .data          0x00068000        0x4 d:/android/android-ndk-r8e/platforms/android-9/arch-arm/usr/lib/crtbegin_so.o
                0x00068000                __dso_handle
 .data          0x00068004       0x28 D:\oxygine-sound\dependencies\openalext\lib\android\libopenal.a(ALc.o)
 .data.rel      0x0006802c       0xe0 D:\oxygine-sound\dependencies\openalext\lib\android\libopenal.a(ALc.o)
 .data          0x0006810c        0x4 D:\oxygine-sound\dependencies\openalext\lib\android\libopenal.a(ALu.o)
                0x0006810c                alc_max_sources
 .data.rel.local
                0x00068110       0x28 D:\oxygine-sound\dependencies\openalext\lib\android\libopenal.a(null.o)
                0x00068110                null_funcs
 .data          0x00068138       0x4c D:\oxygine-sound\dependencies\openalext\lib\android\libopenal.a(opensles.o)
 .data.rel.local
                0x00068184       0x28 D:\oxygine-sound\dependencies\openalext\lib\android\libopenal.a(opensles.o)
                0x00068184                opensles_funcs

.data1
 *(.data1)
                0x000681ac                _edata = .
                0x000681ac                PROVIDE (edata, .)
                0x000681ac                __bss_start = .
                0x000681ac                __bss_start__ = .

.bss            0x000681ac      0x4f0
 *(.dynbss)
 .dynbss        0x00000000        0x0 d:/android/android-ndk-r8e/platforms/android-9/arch-arm/usr/lib/crtbegin_so.o
 *(.bss .bss.* .gnu.linkonce.b.*)
 .bss           0x000681ac        0x4 D:\oxygine-sound\dependencies\openalext\lib\android\libopenal.a(android.o)
 .bss           0x000681b0       0x4c D:\oxygine-sound\dependencies\openalext\lib\android\libopenal.a(ALc.o)
 .bss           0x000681fc      0x408 D:\oxygine-sound\dependencies\openalext\lib\android\libopenal.a(alcConfig.o)
 .bss           0x00068604       0x18 D:\oxygine-sound\dependencies\openalext\lib\android\libopenal.a(ALu.o)
                0x00068618                alc_active_sources
                0x00068614                alc_num_cores
 .bss           0x0006861c        0x4 D:\oxygine-sound\dependencies\openalext\lib\android\libopenal.a(null.o)
 .bss           0x00068620       0x30 D:\oxygine-sound\dependencies\openalext\lib\android\libopenal.a(audiotrack.o)
 .bss           0x00068650       0x38 D:\oxygine-sound\dependencies\openalext\lib\android\libopenal.a(opensles.o)
 *(COMMON)
 COMMON         0x00068688        0xc D:\oxygine-sound\dependencies\openalext\lib\android\libopenal.a(android.o)
                0x00068688                apportableOpenALFuncs
 COMMON         0x00068694        0x4 D:\oxygine-sound\dependencies\openalext\lib\android\libopenal.a(alSource.o)
                0x00068694                DefaultResampler
 COMMON         0x00068698        0x4 D:\oxygine-sound\dependencies\openalext\lib\android\libopenal.a(alEffect.o)
                0x00068698                DisabledEffects
                0x0006869c                . = ALIGN ((. != 0x0)?0x4:0x1)
                0x0006869c                _bss_end__ = .
                0x0006869c                __bss_end__ = .
                0x0006869c                . = ALIGN (0x4)
                0x0006869c                . = ALIGN (0x4)
                0x0006869c                __end__ = .
                0x0006869c                _end = .
                0x0006869c                PROVIDE (end, .)
                0x0006869c                . = DATA_SEGMENT_END (.)

.stab
 *(.stab)

.stabstr
 *(.stabstr)

.stab.excl
 *(.stab.excl)

.stab.exclstr
 *(.stab.exclstr)

.stab.index
 *(.stab.index)

.stab.indexstr
 *(.stab.indexstr)

.comment        0x00000000       0xb5
 *(.comment)
 .comment       0x00000000       0x25 d:/android/android-ndk-r8e/platforms/android-9/arch-arm/usr/lib/crtbegin_so.o
                                 0x26 (size before relaxing)
 .comment       0x00000025       0x12 release\openalext_platform.os
 .comment       0x00000037       0x12 release\openalext.os
 .comment       0x00000049       0x12 release\openalext_register.os
 .comment       0x00000000       0x26 D:\oxygine-sound\dependencies\openalext\lib\android\libopenal.a(android.o)
 .comment       0x00000000       0x26 D:\oxygine-sound\dependencies\openalext\lib\android\libopenal.a(alBuffer.o)
 .comment       0x00000000       0x26 D:\oxygine-sound\dependencies\openalext\lib\android\libopenal.a(alError.o)
 .comment       0x00000000       0x26 D:\oxygine-sound\dependencies\openalext\lib\android\libopenal.a(alSource.o)
 .comment       0x00000000       0x26 D:\oxygine-sound\dependencies\openalext\lib\android\libopenal.a(ALc.o)
 .comment       0x00000000       0x26 D:\oxygine-sound\dependencies\openalext\lib\android\libopenal.a(alcConfig.o)
 .comment       0x00000000       0x26 D:\oxygine-sound\dependencies\openalext\lib\android\libopenal.a(ALu.o)
 .comment       0x00000000       0x26 D:\oxygine-sound\dependencies\openalext\lib\android\libopenal.a(bs2b.o)
 .comment       0x00000000       0x26 D:\oxygine-sound\dependencies\openalext\lib\android\libopenal.a(null.o)
 .comment       0x00000000       0x26 D:\oxygine-sound\dependencies\openalext\lib\android\libopenal.a(panning.o)
 .comment       0x00000000       0x26 D:\oxygine-sound\dependencies\openalext\lib\android\libopenal.a(mixer.o)
 .comment       0x00000000       0x26 D:\oxygine-sound\dependencies\openalext\lib\android\libopenal.a(audiotrack.o)
 .comment       0x00000000       0x26 D:\oxygine-sound\dependencies\openalext\lib\android\libopenal.a(opensles.o)
 .comment       0x00000000       0x26 D:\oxygine-sound\dependencies\openalext\lib\android\libopenal.a(alAuxEffectSlot.o)
 .comment       0x00000000       0x26 D:\oxygine-sound\dependencies\openalext\lib\android\libopenal.a(alDatabuffer.o)
 .comment       0x00000000       0x26 D:\oxygine-sound\dependencies\openalext\lib\android\libopenal.a(alEffect.o)
 .comment       0x00000000       0x26 D:\oxygine-sound\dependencies\openalext\lib\android\libopenal.a(alExtension.o)
 .comment       0x00000000       0x26 D:\oxygine-sound\dependencies\openalext\lib\android\libopenal.a(alFilter.o)
 .comment       0x00000000       0x26 D:\oxygine-sound\dependencies\openalext\lib\android\libopenal.a(alListener.o)
 .comment       0x00000000       0x26 D:\oxygine-sound\dependencies\openalext\lib\android\libopenal.a(alState.o)
 .comment       0x00000000       0x26 D:\oxygine-sound\dependencies\openalext\lib\android\libopenal.a(alcEcho.o)
 .comment       0x00000000       0x26 D:\oxygine-sound\dependencies\openalext\lib\android\libopenal.a(alcModulator.o)
 .comment       0x00000000       0x26 D:\oxygine-sound\dependencies\openalext\lib\android\libopenal.a(alcReverb.o)
 .comment       0x00000000       0x26 D:\oxygine-sound\dependencies\openalext\lib\android\libopenal.a(alcThread.o)
 .comment       0x0000005b       0x12 d:/android/android-ndk-r8e/toolchains/arm-linux-androideabi-4.4.3/prebuilt/windows/bin/../lib/gcc/arm-linux-androideabi/4.4.3\libgcc.a(bpabi.o)
 .comment       0x0000006d       0x12 d:/android/android-ndk-r8e/toolchains/arm-linux-androideabi-4.4.3/prebuilt/windows/bin/../lib/gcc/arm-linux-androideabi/4.4.3\libgcc.a(unwind-arm.o)
 .comment       0x0000007f       0x12 d:/android/android-ndk-r8e/toolchains/arm-linux-androideabi-4.4.3/prebuilt/windows/bin/../lib/gcc/arm-linux-androideabi/4.4.3\libgcc.a(pr-support.o)
 .comment       0x00000091       0x12 d:/android/android-ndk-r8e/toolchains/arm-linux-androideabi-4.4.3/prebuilt/windows/bin/../lib/gcc/arm-linux-androideabi/4.4.3\libgcc.a(_divdi3.o)
 .comment       0x000000a3       0x12 d:/android/android-ndk-r8e/toolchains/arm-linux-androideabi-4.4.3/prebuilt/windows/bin/../lib/gcc/arm-linux-androideabi/4.4.3\libgcc.a(_udivdi3.o)

.debug
 *(.debug)

.line
 *(.line)

.debug_srcinfo
 *(.debug_srcinfo)

.debug_sfnames
 *(.debug_sfnames)

.debug_aranges  0x00000000      0xda0
 *(.debug_aranges)
 .debug_aranges
                0x00000000       0x40 D:\oxygine-sound\dependencies\openalext\lib\android\libopenal.a(android.o)
 .debug_aranges
                0x00000040       0xf8 D:\oxygine-sound\dependencies\openalext\lib\android\libopenal.a(alBuffer.o)
 .debug_aranges
                0x00000138       0x28 D:\oxygine-sound\dependencies\openalext\lib\android\libopenal.a(alError.o)
 .debug_aranges
                0x00000160       0xe8 D:\oxygine-sound\dependencies\openalext\lib\android\libopenal.a(alSource.o)
 .debug_aranges
                0x00000248      0x170 D:\oxygine-sound\dependencies\openalext\lib\android\libopenal.a(ALc.o)
 .debug_aranges
                0x000003b8       0x58 D:\oxygine-sound\dependencies\openalext\lib\android\libopenal.a(alcConfig.o)
 .debug_aranges
                0x00000410       0x38 D:\oxygine-sound\dependencies\openalext\lib\android\libopenal.a(ALu.o)
 .debug_aranges
                0x00000448       0x50 D:\oxygine-sound\dependencies\openalext\lib\android\libopenal.a(bs2b.o)
 .debug_aranges
                0x00000498       0x60 D:\oxygine-sound\dependencies\openalext\lib\android\libopenal.a(null.o)
 .debug_aranges
                0x000004f8       0x30 D:\oxygine-sound\dependencies\openalext\lib\android\libopenal.a(panning.o)
 .debug_aranges
                0x00000528      0x120 D:\oxygine-sound\dependencies\openalext\lib\android\libopenal.a(mixer.o)
 .debug_aranges
                0x00000648       0x98 D:\oxygine-sound\dependencies\openalext\lib\android\libopenal.a(audiotrack.o)
 .debug_aranges
                0x000006e0       0xc8 D:\oxygine-sound\dependencies\openalext\lib\android\libopenal.a(opensles.o)
 .debug_aranges
                0x000007a8       0xa0 D:\oxygine-sound\dependencies\openalext\lib\android\libopenal.a(alAuxEffectSlot.o)
 .debug_aranges
                0x00000848       0xa8 D:\oxygine-sound\dependencies\openalext\lib\android\libopenal.a(alDatabuffer.o)
 .debug_aranges
                0x000008f0       0x78 D:\oxygine-sound\dependencies\openalext\lib\android\libopenal.a(alEffect.o)
 .debug_aranges
                0x00000968       0x30 D:\oxygine-sound\dependencies\openalext\lib\android\libopenal.a(alExtension.o)
 .debug_aranges
                0x00000998       0x78 D:\oxygine-sound\dependencies\openalext\lib\android\libopenal.a(alFilter.o)
 .debug_aranges
                0x00000a10       0x78 D:\oxygine-sound\dependencies\openalext\lib\android\libopenal.a(alListener.o)
 .debug_aranges
                0x00000a88       0x98 D:\oxygine-sound\dependencies\openalext\lib\android\libopenal.a(alState.o)
 .debug_aranges
                0x00000b20       0x40 D:\oxygine-sound\dependencies\openalext\lib\android\libopenal.a(alcEcho.o)
 .debug_aranges
                0x00000b60       0x40 D:\oxygine-sound\dependencies\openalext\lib\android\libopenal.a(alcModulator.o)
 .debug_aranges
                0x00000ba0       0x70 D:\oxygine-sound\dependencies\openalext\lib\android\libopenal.a(alcReverb.o)
 .debug_aranges
                0x00000c10       0x30 D:\oxygine-sound\dependencies\openalext\lib\android\libopenal.a(alcThread.o)
 .debug_aranges
                0x00000c40       0x20 d:/android/android-ndk-r8e/toolchains/arm-linux-androideabi-4.4.3/prebuilt/windows/bin/../lib/gcc/arm-linux-androideabi/4.4.3\libgcc.a(_udivsi3.o)
 .debug_aranges
                0x00000c60       0x20 d:/android/android-ndk-r8e/toolchains/arm-linux-androideabi-4.4.3/prebuilt/windows/bin/../lib/gcc/arm-linux-androideabi/4.4.3\libgcc.a(_divsi3.o)
 .debug_aranges
                0x00000c80       0x20 d:/android/android-ndk-r8e/toolchains/arm-linux-androideabi-4.4.3/prebuilt/windows/bin/../lib/gcc/arm-linux-androideabi/4.4.3\libgcc.a(_aeabi_ldivmod.o)
 .debug_aranges
                0x00000ca0       0x20 d:/android/android-ndk-r8e/toolchains/arm-linux-androideabi-4.4.3/prebuilt/windows/bin/../lib/gcc/arm-linux-androideabi/4.4.3\libgcc.a(_aeabi_uldivmod.o)
 .debug_aranges
                0x00000cc0       0x20 d:/android/android-ndk-r8e/toolchains/arm-linux-androideabi-4.4.3/prebuilt/windows/bin/../lib/gcc/arm-linux-androideabi/4.4.3\libgcc.a(_dvmd_lnx.o)
 .debug_aranges
                0x00000ce0       0x20 d:/android/android-ndk-r8e/toolchains/arm-linux-androideabi-4.4.3/prebuilt/windows/bin/../lib/gcc/arm-linux-androideabi/4.4.3\libgcc.a(bpabi.o)
 .debug_aranges
                0x00000d00       0x20 d:/android/android-ndk-r8e/toolchains/arm-linux-androideabi-4.4.3/prebuilt/windows/bin/../lib/gcc/arm-linux-androideabi/4.4.3\libgcc.a(unwind-arm.o)
 .debug_aranges
                0x00000d20       0x20 d:/android/android-ndk-r8e/toolchains/arm-linux-androideabi-4.4.3/prebuilt/windows/bin/../lib/gcc/arm-linux-androideabi/4.4.3\libgcc.a(libunwind.o)
 .debug_aranges
                0x00000d40       0x20 d:/android/android-ndk-r8e/toolchains/arm-linux-androideabi-4.4.3/prebuilt/windows/bin/../lib/gcc/arm-linux-androideabi/4.4.3\libgcc.a(pr-support.o)
 .debug_aranges
                0x00000d60       0x20 d:/android/android-ndk-r8e/toolchains/arm-linux-androideabi-4.4.3/prebuilt/windows/bin/../lib/gcc/arm-linux-androideabi/4.4.3\libgcc.a(_divdi3.o)
 .debug_aranges
                0x00000d80       0x20 d:/android/android-ndk-r8e/toolchains/arm-linux-androideabi-4.4.3/prebuilt/windows/bin/../lib/gcc/arm-linux-androideabi/4.4.3\libgcc.a(_udivdi3.o)

.debug_pubnames
                0x00000000     0x273c
 *(.debug_pubnames)
 .debug_pubnames
                0x00000000       0x85 D:\oxygine-sound\dependencies\openalext\lib\android\libopenal.a(android.o)
 .debug_pubnames
                0x00000085      0x2a2 D:\oxygine-sound\dependencies\openalext\lib\android\libopenal.a(alBuffer.o)
 .debug_pubnames
                0x00000327       0x30 D:\oxygine-sound\dependencies\openalext\lib\android\libopenal.a(alError.o)
 .debug_pubnames
                0x00000357      0x225 D:\oxygine-sound\dependencies\openalext\lib\android\libopenal.a(alSource.o)
 .debug_pubnames
                0x0000057c      0x68b D:\oxygine-sound\dependencies\openalext\lib\android\libopenal.a(ALc.o)
 .debug_pubnames
                0x00000c07       0xdf D:\oxygine-sound\dependencies\openalext\lib\android\libopenal.a(alcConfig.o)
 .debug_pubnames
                0x00000ce6       0xfa D:\oxygine-sound\dependencies\openalext\lib\android\libopenal.a(ALu.o)
 .debug_pubnames
                0x00000de0       0x93 D:\oxygine-sound\dependencies\openalext\lib\android\libopenal.a(bs2b.o)
 .debug_pubnames
                0x00000e73       0xea D:\oxygine-sound\dependencies\openalext\lib\android\libopenal.a(null.o)
 .debug_pubnames
                0x00000f5d       0x5e D:\oxygine-sound\dependencies\openalext\lib\android\libopenal.a(panning.o)
 .debug_pubnames
                0x00000fbb      0x317 D:\oxygine-sound\dependencies\openalext\lib\android\libopenal.a(mixer.o)
 .debug_pubnames
                0x000012d2      0x2a1 D:\oxygine-sound\dependencies\openalext\lib\android\libopenal.a(audiotrack.o)
 .debug_pubnames
                0x00001573      0x3c6 D:\oxygine-sound\dependencies\openalext\lib\android\libopenal.a(opensles.o)
 .debug_pubnames
                0x00001939      0x1ca D:\oxygine-sound\dependencies\openalext\lib\android\libopenal.a(alAuxEffectSlot.o)
 .debug_pubnames
                0x00001b03      0x1c7 D:\oxygine-sound\dependencies\openalext\lib\android\libopenal.a(alDatabuffer.o)
 .debug_pubnames
                0x00001cca       0xef D:\oxygine-sound\dependencies\openalext\lib\android\libopenal.a(alEffect.o)
 .debug_pubnames
                0x00001db9       0x63 D:\oxygine-sound\dependencies\openalext\lib\android\libopenal.a(alExtension.o)
 .debug_pubnames
                0x00001e1c       0xdb D:\oxygine-sound\dependencies\openalext\lib\android\libopenal.a(alFilter.o)
 .debug_pubnames
                0x00001ef7       0xec D:\oxygine-sound\dependencies\openalext\lib\android\libopenal.a(alListener.o)
 .debug_pubnames
                0x00001fe3      0x1c4 D:\oxygine-sound\dependencies\openalext\lib\android\libopenal.a(alState.o)
 .debug_pubnames
                0x000021a7       0x65 D:\oxygine-sound\dependencies\openalext\lib\android\libopenal.a(alcEcho.o)
 .debug_pubnames
                0x0000220c       0x7e D:\oxygine-sound\dependencies\openalext\lib\android\libopenal.a(alcModulator.o)
 .debug_pubnames
                0x0000228a      0x1bf D:\oxygine-sound\dependencies\openalext\lib\android\libopenal.a(alcReverb.o)
 .debug_pubnames
                0x00002449       0x41 D:\oxygine-sound\dependencies\openalext\lib\android\libopenal.a(alcThread.o)
 .debug_pubnames
                0x0000248a       0x45 d:/android/android-ndk-r8e/toolchains/arm-linux-androideabi-4.4.3/prebuilt/windows/bin/../lib/gcc/arm-linux-androideabi/4.4.3\libgcc.a(bpabi.o)
 .debug_pubnames
                0x000024cf      0x177 d:/android/android-ndk-r8e/toolchains/arm-linux-androideabi-4.4.3/prebuilt/windows/bin/../lib/gcc/arm-linux-androideabi/4.4.3\libgcc.a(unwind-arm.o)
 .debug_pubnames
                0x00002646       0xb7 d:/android/android-ndk-r8e/toolchains/arm-linux-androideabi-4.4.3/prebuilt/windows/bin/../lib/gcc/arm-linux-androideabi/4.4.3\libgcc.a(pr-support.o)
 .debug_pubnames
                0x000026fd       0x1f d:/android/android-ndk-r8e/toolchains/arm-linux-androideabi-4.4.3/prebuilt/windows/bin/../lib/gcc/arm-linux-androideabi/4.4.3\libgcc.a(_divdi3.o)
 .debug_pubnames
                0x0000271c       0x20 d:/android/android-ndk-r8e/toolchains/arm-linux-androideabi-4.4.3/prebuilt/windows/bin/../lib/gcc/arm-linux-androideabi/4.4.3\libgcc.a(_udivdi3.o)

.debug_info     0x00000000    0x46db8
 *(.debug_info .gnu.linkonce.wi.*)
 .debug_info    0x00000000     0x37fc D:\oxygine-sound\dependencies\openalext\lib\android\libopenal.a(android.o)
 .debug_info    0x000037fc     0x3587 D:\oxygine-sound\dependencies\openalext\lib\android\libopenal.a(alBuffer.o)
 .debug_info    0x00006d83      0x871 D:\oxygine-sound\dependencies\openalext\lib\android\libopenal.a(alError.o)
 .debug_info    0x000075f4     0x327b D:\oxygine-sound\dependencies\openalext\lib\android\libopenal.a(alSource.o)
 .debug_info    0x0000a86f     0x39cd D:\oxygine-sound\dependencies\openalext\lib\android\libopenal.a(ALc.o)
 .debug_info    0x0000e23c      0x78c D:\oxygine-sound\dependencies\openalext\lib\android\libopenal.a(alcConfig.o)
 .debug_info    0x0000e9c8     0x4f58 D:\oxygine-sound\dependencies\openalext\lib\android\libopenal.a(ALu.o)
 .debug_info    0x00013920      0x3e1 D:\oxygine-sound\dependencies\openalext\lib\android\libopenal.a(bs2b.o)
 .debug_info    0x00013d01      0xcb0 D:\oxygine-sound\dependencies\openalext\lib\android\libopenal.a(null.o)
 .debug_info    0x000149b1      0xbd6 D:\oxygine-sound\dependencies\openalext\lib\android\libopenal.a(panning.o)
 .debug_info    0x00015587    0x1694e D:\oxygine-sound\dependencies\openalext\lib\android\libopenal.a(mixer.o)
 .debug_info    0x0002bed5     0x3d1c D:\oxygine-sound\dependencies\openalext\lib\android\libopenal.a(audiotrack.o)
 .debug_info    0x0002fbf1     0x5424 D:\oxygine-sound\dependencies\openalext\lib\android\libopenal.a(opensles.o)
 .debug_info    0x00035015     0x1987 D:\oxygine-sound\dependencies\openalext\lib\android\libopenal.a(alAuxEffectSlot.o)
 .debug_info    0x0003699c     0x125b D:\oxygine-sound\dependencies\openalext\lib\android\libopenal.a(alDatabuffer.o)
 .debug_info    0x00037bf7     0x130e D:\oxygine-sound\dependencies\openalext\lib\android\libopenal.a(alEffect.o)
 .debug_info    0x00038f05     0x1489 D:\oxygine-sound\dependencies\openalext\lib\android\libopenal.a(alExtension.o)
 .debug_info    0x0003a38e     0x10fe D:\oxygine-sound\dependencies\openalext\lib\android\libopenal.a(alFilter.o)
 .debug_info    0x0003b48c     0x14ca D:\oxygine-sound\dependencies\openalext\lib\android\libopenal.a(alListener.o)
 .debug_info    0x0003c956     0x1449 D:\oxygine-sound\dependencies\openalext\lib\android\libopenal.a(alState.o)
 .debug_info    0x0003dd9f     0x10a1 D:\oxygine-sound\dependencies\openalext\lib\android\libopenal.a(alcEcho.o)
 .debug_info    0x0003ee40     0x10cc D:\oxygine-sound\dependencies\openalext\lib\android\libopenal.a(alcModulator.o)
 .debug_info    0x0003ff0c     0x4096 D:\oxygine-sound\dependencies\openalext\lib\android\libopenal.a(alcReverb.o)
 .debug_info    0x00043fa2      0x205 D:\oxygine-sound\dependencies\openalext\lib\android\libopenal.a(alcThread.o)
 .debug_info    0x000441a7       0xd9 d:/android/android-ndk-r8e/toolchains/arm-linux-androideabi-4.4.3/prebuilt/windows/bin/../lib/gcc/arm-linux-androideabi/4.4.3\libgcc.a(_udivsi3.o)
 .debug_info    0x00044280       0xd9 d:/android/android-ndk-r8e/toolchains/arm-linux-androideabi-4.4.3/prebuilt/windows/bin/../lib/gcc/arm-linux-androideabi/4.4.3\libgcc.a(_divsi3.o)
 .debug_info    0x00044359       0xd3 d:/android/android-ndk-r8e/toolchains/arm-linux-androideabi-4.4.3/prebuilt/windows/bin/../lib/gcc/arm-linux-androideabi/4.4.3\libgcc.a(_aeabi_ldivmod.o)
 .debug_info    0x0004442c       0xd3 d:/android/android-ndk-r8e/toolchains/arm-linux-androideabi-4.4.3/prebuilt/windows/bin/../lib/gcc/arm-linux-androideabi/4.4.3\libgcc.a(_aeabi_uldivmod.o)
 .debug_info    0x000444ff       0xd9 d:/android/android-ndk-r8e/toolchains/arm-linux-androideabi-4.4.3/prebuilt/windows/bin/../lib/gcc/arm-linux-androideabi/4.4.3\libgcc.a(_dvmd_lnx.o)
 .debug_info    0x000445d8       0xde d:/android/android-ndk-r8e/toolchains/arm-linux-androideabi-4.4.3/prebuilt/windows/bin/../lib/gcc/arm-linux-androideabi/4.4.3\libgcc.a(bpabi.o)
 .debug_info    0x000446b6     0x1424 d:/android/android-ndk-r8e/toolchains/arm-linux-androideabi-4.4.3/prebuilt/windows/bin/../lib/gcc/arm-linux-androideabi/4.4.3\libgcc.a(unwind-arm.o)
 .debug_info    0x00045ada       0xd7 d:/android/android-ndk-r8e/toolchains/arm-linux-androideabi-4.4.3/prebuilt/windows/bin/../lib/gcc/arm-linux-androideabi/4.4.3\libgcc.a(libunwind.o)
 .debug_info    0x00045bb1      0x636 d:/android/android-ndk-r8e/toolchains/arm-linux-androideabi-4.4.3/prebuilt/windows/bin/../lib/gcc/arm-linux-androideabi/4.4.3\libgcc.a(pr-support.o)
 .debug_info    0x000461e7      0x606 d:/android/android-ndk-r8e/toolchains/arm-linux-androideabi-4.4.3/prebuilt/windows/bin/../lib/gcc/arm-linux-androideabi/4.4.3\libgcc.a(_divdi3.o)
 .debug_info    0x000467ed      0x5cb d:/android/android-ndk-r8e/toolchains/arm-linux-androideabi-4.4.3/prebuilt/windows/bin/../lib/gcc/arm-linux-androideabi/4.4.3\libgcc.a(_udivdi3.o)

.debug_abbrev   0x00000000     0x540e
 *(.debug_abbrev)
 .debug_abbrev  0x00000000      0x269 D:\oxygine-sound\dependencies\openalext\lib\android\libopenal.a(android.o)
 .debug_abbrev  0x00000269      0x45d D:\oxygine-sound\dependencies\openalext\lib\android\libopenal.a(alBuffer.o)
 .debug_abbrev  0x000006c6      0x1bd D:\oxygine-sound\dependencies\openalext\lib\android\libopenal.a(alError.o)
 .debug_abbrev  0x00000883      0x42d D:\oxygine-sound\dependencies\openalext\lib\android\libopenal.a(alSource.o)
 .debug_abbrev  0x00000cb0      0x464 D:\oxygine-sound\dependencies\openalext\lib\android\libopenal.a(ALc.o)
 .debug_abbrev  0x00001114      0x237 D:\oxygine-sound\dependencies\openalext\lib\android\libopenal.a(alcConfig.o)
 .debug_abbrev  0x0000134b      0x3c1 D:\oxygine-sound\dependencies\openalext\lib\android\libopenal.a(ALu.o)
 .debug_abbrev  0x0000170c      0x162 D:\oxygine-sound\dependencies\openalext\lib\android\libopenal.a(bs2b.o)
 .debug_abbrev  0x0000186e      0x354 D:\oxygine-sound\dependencies\openalext\lib\android\libopenal.a(null.o)
 .debug_abbrev  0x00001bc2      0x2f9 D:\oxygine-sound\dependencies\openalext\lib\android\libopenal.a(panning.o)
 .debug_abbrev  0x00001ebb      0x3df D:\oxygine-sound\dependencies\openalext\lib\android\libopenal.a(mixer.o)
 .debug_abbrev  0x0000229a      0x408 D:\oxygine-sound\dependencies\openalext\lib\android\libopenal.a(audiotrack.o)
 .debug_abbrev  0x000026a2      0x4be D:\oxygine-sound\dependencies\openalext\lib\android\libopenal.a(opensles.o)
 .debug_abbrev  0x00002b60      0x39b D:\oxygine-sound\dependencies\openalext\lib\android\libopenal.a(alAuxEffectSlot.o)
 .debug_abbrev  0x00002efb      0x313 D:\oxygine-sound\dependencies\openalext\lib\android\libopenal.a(alDatabuffer.o)
 .debug_abbrev  0x0000320e      0x358 D:\oxygine-sound\dependencies\openalext\lib\android\libopenal.a(alEffect.o)
 .debug_abbrev  0x00003566      0x24b D:\oxygine-sound\dependencies\openalext\lib\android\libopenal.a(alExtension.o)
 .debug_abbrev  0x000037b1      0x31a D:\oxygine-sound\dependencies\openalext\lib\android\libopenal.a(alFilter.o)
 .debug_abbrev  0x00003acb      0x2a7 D:\oxygine-sound\dependencies\openalext\lib\android\libopenal.a(alListener.o)
 .debug_abbrev  0x00003d72      0x25e D:\oxygine-sound\dependencies\openalext\lib\android\libopenal.a(alState.o)
 .debug_abbrev  0x00003fd0      0x2a0 D:\oxygine-sound\dependencies\openalext\lib\android\libopenal.a(alcEcho.o)
 .debug_abbrev  0x00004270      0x2c5 D:\oxygine-sound\dependencies\openalext\lib\android\libopenal.a(alcModulator.o)
 .debug_abbrev  0x00004535      0x41f D:\oxygine-sound\dependencies\openalext\lib\android\libopenal.a(alcReverb.o)
 .debug_abbrev  0x00004954      0x105 D:\oxygine-sound\dependencies\openalext\lib\android\libopenal.a(alcThread.o)
 .debug_abbrev  0x00004a59       0x14 d:/android/android-ndk-r8e/toolchains/arm-linux-androideabi-4.4.3/prebuilt/windows/bin/../lib/gcc/arm-linux-androideabi/4.4.3\libgcc.a(_udivsi3.o)
 .debug_abbrev  0x00004a6d       0x14 d:/android/android-ndk-r8e/toolchains/arm-linux-androideabi-4.4.3/prebuilt/windows/bin/../lib/gcc/arm-linux-androideabi/4.4.3\libgcc.a(_divsi3.o)
 .debug_abbrev  0x00004a81       0x14 d:/android/android-ndk-r8e/toolchains/arm-linux-androideabi-4.4.3/prebuilt/windows/bin/../lib/gcc/arm-linux-androideabi/4.4.3\libgcc.a(_aeabi_ldivmod.o)
 .debug_abbrev  0x00004a95       0x14 d:/android/android-ndk-r8e/toolchains/arm-linux-androideabi-4.4.3/prebuilt/windows/bin/../lib/gcc/arm-linux-androideabi/4.4.3\libgcc.a(_aeabi_uldivmod.o)
 .debug_abbrev  0x00004aa9       0x14 d:/android/android-ndk-r8e/toolchains/arm-linux-androideabi-4.4.3/prebuilt/windows/bin/../lib/gcc/arm-linux-androideabi/4.4.3\libgcc.a(_dvmd_lnx.o)
 .debug_abbrev  0x00004abd       0x6a d:/android/android-ndk-r8e/toolchains/arm-linux-androideabi-4.4.3/prebuilt/windows/bin/../lib/gcc/arm-linux-androideabi/4.4.3\libgcc.a(bpabi.o)
 .debug_abbrev  0x00004b27      0x3bb d:/android/android-ndk-r8e/toolchains/arm-linux-androideabi-4.4.3/prebuilt/windows/bin/../lib/gcc/arm-linux-androideabi/4.4.3\libgcc.a(unwind-arm.o)
 .debug_abbrev  0x00004ee2       0x14 d:/android/android-ndk-r8e/toolchains/arm-linux-androideabi-4.4.3/prebuilt/windows/bin/../lib/gcc/arm-linux-androideabi/4.4.3\libgcc.a(libunwind.o)
 .debug_abbrev  0x00004ef6      0x220 d:/android/android-ndk-r8e/toolchains/arm-linux-androideabi-4.4.3/prebuilt/windows/bin/../lib/gcc/arm-linux-androideabi/4.4.3\libgcc.a(pr-support.o)
 .debug_abbrev  0x00005116      0x18b d:/android/android-ndk-r8e/toolchains/arm-linux-androideabi-4.4.3/prebuilt/windows/bin/../lib/gcc/arm-linux-androideabi/4.4.3\libgcc.a(_divdi3.o)
 .debug_abbrev  0x000052a1      0x16d d:/android/android-ndk-r8e/toolchains/arm-linux-androideabi-4.4.3/prebuilt/windows/bin/../lib/gcc/arm-linux-androideabi/4.4.3\libgcc.a(_udivdi3.o)

.debug_line     0x00000000    0x35c71
 *(.debug_line)
 .debug_line    0x00000000      0x21a D:\oxygine-sound\dependencies\openalext\lib\android\libopenal.a(android.o)
 .debug_line    0x0000021a     0x13ff D:\oxygine-sound\dependencies\openalext\lib\android\libopenal.a(alBuffer.o)
 .debug_line    0x00001619      0x11e D:\oxygine-sound\dependencies\openalext\lib\android\libopenal.a(alError.o)
 .debug_line    0x00001737     0x1523 D:\oxygine-sound\dependencies\openalext\lib\android\libopenal.a(alSource.o)
 .debug_line    0x00002c5a     0x1583 D:\oxygine-sound\dependencies\openalext\lib\android\libopenal.a(ALc.o)
 .debug_line    0x000041dd      0x547 D:\oxygine-sound\dependencies\openalext\lib\android\libopenal.a(alcConfig.o)
 .debug_line    0x00004724     0x4109 D:\oxygine-sound\dependencies\openalext\lib\android\libopenal.a(ALu.o)
 .debug_line    0x0000882d      0x1e0 D:\oxygine-sound\dependencies\openalext\lib\android\libopenal.a(bs2b.o)
 .debug_line    0x00008a0d      0x425 D:\oxygine-sound\dependencies\openalext\lib\android\libopenal.a(null.o)
 .debug_line    0x00008e32      0x45a D:\oxygine-sound\dependencies\openalext\lib\android\libopenal.a(panning.o)
 .debug_line    0x0000928c    0x27166 D:\oxygine-sound\dependencies\openalext\lib\android\libopenal.a(mixer.o)
 .debug_line    0x000303f2      0x3d6 D:\oxygine-sound\dependencies\openalext\lib\android\libopenal.a(audiotrack.o)
 .debug_line    0x000307c8      0xa4e D:\oxygine-sound\dependencies\openalext\lib\android\libopenal.a(opensles.o)
 .debug_line    0x00031216      0x4ff D:\oxygine-sound\dependencies\openalext\lib\android\libopenal.a(alAuxEffectSlot.o)
 .debug_line    0x00031715      0x518 D:\oxygine-sound\dependencies\openalext\lib\android\libopenal.a(alDatabuffer.o)
 .debug_line    0x00031c2d      0x720 D:\oxygine-sound\dependencies\openalext\lib\android\libopenal.a(alEffect.o)
 .debug_line    0x0003234d      0x2b1 D:\oxygine-sound\dependencies\openalext\lib\android\libopenal.a(alExtension.o)
 .debug_line    0x000325fe      0x3fb D:\oxygine-sound\dependencies\openalext\lib\android\libopenal.a(alFilter.o)
 .debug_line    0x000329f9      0x46e D:\oxygine-sound\dependencies\openalext\lib\android\libopenal.a(alListener.o)
 .debug_line    0x00032e67      0x5b2 D:\oxygine-sound\dependencies\openalext\lib\android\libopenal.a(alState.o)
 .debug_line    0x00033419      0x2ff D:\oxygine-sound\dependencies\openalext\lib\android\libopenal.a(alcEcho.o)
 .debug_line    0x00033718      0x2e9 D:\oxygine-sound\dependencies\openalext\lib\android\libopenal.a(alcModulator.o)
 .debug_line    0x00033a01     0x145b D:\oxygine-sound\dependencies\openalext\lib\android\libopenal.a(alcReverb.o)
 .debug_line    0x00034e5c       0xfe D:\oxygine-sound\dependencies\openalext\lib\android\libopenal.a(alcThread.o)
 .debug_line    0x00034f5a       0xaa d:/android/android-ndk-r8e/toolchains/arm-linux-androideabi-4.4.3/prebuilt/windows/bin/../lib/gcc/arm-linux-androideabi/4.4.3\libgcc.a(_udivsi3.o)
 .debug_line    0x00035004       0xb6 d:/android/android-ndk-r8e/toolchains/arm-linux-androideabi-4.4.3/prebuilt/windows/bin/../lib/gcc/arm-linux-androideabi/4.4.3\libgcc.a(_divsi3.o)
 .debug_line    0x000350ba       0x83 d:/android/android-ndk-r8e/toolchains/arm-linux-androideabi-4.4.3/prebuilt/windows/bin/../lib/gcc/arm-linux-androideabi/4.4.3\libgcc.a(_aeabi_ldivmod.o)
 .debug_line    0x0003513d       0x83 d:/android/android-ndk-r8e/toolchains/arm-linux-androideabi-4.4.3/prebuilt/windows/bin/../lib/gcc/arm-linux-androideabi/4.4.3\libgcc.a(_aeabi_uldivmod.o)
 .debug_line    0x000351c0       0x89 d:/android/android-ndk-r8e/toolchains/arm-linux-androideabi-4.4.3/prebuilt/windows/bin/../lib/gcc/arm-linux-androideabi/4.4.3\libgcc.a(_dvmd_lnx.o)
 .debug_line    0x00035249       0x89 d:/android/android-ndk-r8e/toolchains/arm-linux-androideabi-4.4.3/prebuilt/windows/bin/../lib/gcc/arm-linux-androideabi/4.4.3\libgcc.a(bpabi.o)
 .debug_line    0x000352d2      0x4b0 d:/android/android-ndk-r8e/toolchains/arm-linux-androideabi-4.4.3/prebuilt/windows/bin/../lib/gcc/arm-linux-androideabi/4.4.3\libgcc.a(unwind-arm.o)
 .debug_line    0x00035782       0xcf d:/android/android-ndk-r8e/toolchains/arm-linux-androideabi-4.4.3/prebuilt/windows/bin/../lib/gcc/arm-linux-androideabi/4.4.3\libgcc.a(libunwind.o)
 .debug_line    0x00035851      0x1b0 d:/android/android-ndk-r8e/toolchains/arm-linux-androideabi-4.4.3/prebuilt/windows/bin/../lib/gcc/arm-linux-androideabi/4.4.3\libgcc.a(pr-support.o)
 .debug_line    0x00035a01      0x140 d:/android/android-ndk-r8e/toolchains/arm-linux-androideabi-4.4.3/prebuilt/windows/bin/../lib/gcc/arm-linux-androideabi/4.4.3\libgcc.a(_divdi3.o)
 .debug_line    0x00035b41      0x130 d:/android/android-ndk-r8e/toolchains/arm-linux-androideabi-4.4.3/prebuilt/windows/bin/../lib/gcc/arm-linux-androideabi/4.4.3\libgcc.a(_udivdi3.o)

.debug_frame    0x00000000     0x30a4
 *(.debug_frame)
 .debug_frame   0x00000000       0x80 D:\oxygine-sound\dependencies\openalext\lib\android\libopenal.a(android.o)
 .debug_frame   0x00000080      0x34c D:\oxygine-sound\dependencies\openalext\lib\android\libopenal.a(alBuffer.o)
 .debug_frame   0x000003cc       0x38 D:\oxygine-sound\dependencies\openalext\lib\android\libopenal.a(alError.o)
 .debug_frame   0x00000404      0x3d4 D:\oxygine-sound\dependencies\openalext\lib\android\libopenal.a(alSource.o)
 .debug_frame   0x000007d8      0x4b8 D:\oxygine-sound\dependencies\openalext\lib\android\libopenal.a(ALc.o)
 .debug_frame   0x00000c90      0x108 D:\oxygine-sound\dependencies\openalext\lib\android\libopenal.a(alcConfig.o)
 .debug_frame   0x00000d98       0xe4 D:\oxygine-sound\dependencies\openalext\lib\android\libopenal.a(ALu.o)
 .debug_frame   0x00000e7c       0xd0 D:\oxygine-sound\dependencies\openalext\lib\android\libopenal.a(bs2b.o)
 .debug_frame   0x00000f4c       0xf4 D:\oxygine-sound\dependencies\openalext\lib\android\libopenal.a(null.o)
 .debug_frame   0x00001040       0x84 D:\oxygine-sound\dependencies\openalext\lib\android\libopenal.a(panning.o)
 .debug_frame   0x000010c4      0x898 D:\oxygine-sound\dependencies\openalext\lib\android\libopenal.a(mixer.o)
 .debug_frame   0x0000195c      0x178 D:\oxygine-sound\dependencies\openalext\lib\android\libopenal.a(audiotrack.o)
 .debug_frame   0x00001ad4      0x280 D:\oxygine-sound\dependencies\openalext\lib\android\libopenal.a(opensles.o)
 .debug_frame   0x00001d54      0x204 D:\oxygine-sound\dependencies\openalext\lib\android\libopenal.a(alAuxEffectSlot.o)
 .debug_frame   0x00001f58      0x238 D:\oxygine-sound\dependencies\openalext\lib\android\libopenal.a(alDatabuffer.o)
 .debug_frame   0x00002190      0x19c D:\oxygine-sound\dependencies\openalext\lib\android\libopenal.a(alEffect.o)
 .debug_frame   0x0000232c       0x5c D:\oxygine-sound\dependencies\openalext\lib\android\libopenal.a(alExtension.o)
 .debug_frame   0x00002388      0x1a4 D:\oxygine-sound\dependencies\openalext\lib\android\libopenal.a(alFilter.o)
 .debug_frame   0x0000252c      0x198 D:\oxygine-sound\dependencies\openalext\lib\android\libopenal.a(alListener.o)
 .debug_frame   0x000026c4      0x1ec D:\oxygine-sound\dependencies\openalext\lib\android\libopenal.a(alState.o)
 .debug_frame   0x000028b0       0xa4 D:\oxygine-sound\dependencies\openalext\lib\android\libopenal.a(alcEcho.o)
 .debug_frame   0x00002954       0xa0 D:\oxygine-sound\dependencies\openalext\lib\android\libopenal.a(alcModulator.o)
 .debug_frame   0x000029f4      0x1c4 D:\oxygine-sound\dependencies\openalext\lib\android\libopenal.a(alcReverb.o)
 .debug_frame   0x00002bb8       0x60 D:\oxygine-sound\dependencies\openalext\lib\android\libopenal.a(alcThread.o)
 .debug_frame   0x00002c18       0x28 d:/android/android-ndk-r8e/toolchains/arm-linux-androideabi-4.4.3/prebuilt/windows/bin/../lib/gcc/arm-linux-androideabi/4.4.3\libgcc.a(_udivsi3.o)
 .debug_frame   0x00002c40       0x28 d:/android/android-ndk-r8e/toolchains/arm-linux-androideabi-4.4.3/prebuilt/windows/bin/../lib/gcc/arm-linux-androideabi/4.4.3\libgcc.a(_divsi3.o)
 .debug_frame   0x00002c68       0x60 d:/android/android-ndk-r8e/toolchains/arm-linux-androideabi-4.4.3/prebuilt/windows/bin/../lib/gcc/arm-linux-androideabi/4.4.3\libgcc.a(bpabi.o)
 .debug_frame   0x00002cc8      0x248 d:/android/android-ndk-r8e/toolchains/arm-linux-androideabi-4.4.3/prebuilt/windows/bin/../lib/gcc/arm-linux-androideabi/4.4.3\libgcc.a(unwind-arm.o)
 .debug_frame   0x00002f10      0x108 d:/android/android-ndk-r8e/toolchains/arm-linux-androideabi-4.4.3/prebuilt/windows/bin/../lib/gcc/arm-linux-androideabi/4.4.3\libgcc.a(pr-support.o)
 .debug_frame   0x00003018       0x44 d:/android/android-ndk-r8e/toolchains/arm-linux-androideabi-4.4.3/prebuilt/windows/bin/../lib/gcc/arm-linux-androideabi/4.4.3\libgcc.a(_divdi3.o)
 .debug_frame   0x0000305c       0x48 d:/android/android-ndk-r8e/toolchains/arm-linux-androideabi-4.4.3/prebuilt/windows/bin/../lib/gcc/arm-linux-androideabi/4.4.3\libgcc.a(_udivdi3.o)

.debug_str      0x00000000     0x6dbf
 *(.debug_str)
 .debug_str     0x00000000     0x1912 D:\oxygine-sound\dependencies\openalext\lib\android\libopenal.a(android.o)
                               0x1a68 (size before relaxing)
 .debug_str     0x00001912      0x99a D:\oxygine-sound\dependencies\openalext\lib\android\libopenal.a(alBuffer.o)
                               0x1117 (size before relaxing)
 .debug_str     0x000022ac       0x3e D:\oxygine-sound\dependencies\openalext\lib\android\libopenal.a(alError.o)
                                0x65d (size before relaxing)
 .debug_str     0x000022ea      0x7a8 D:\oxygine-sound\dependencies\openalext\lib\android\libopenal.a(alSource.o)
                               0x1170 (size before relaxing)
 .debug_str     0x00002a92      0x97b D:\oxygine-sound\dependencies\openalext\lib\android\libopenal.a(ALc.o)
                               0x175a (size before relaxing)
 .debug_str     0x0000340d      0x118 D:\oxygine-sound\dependencies\openalext\lib\android\libopenal.a(alcConfig.o)
                                0x2ef (size before relaxing)
 .debug_str     0x00003525      0x651 D:\oxygine-sound\dependencies\openalext\lib\android\libopenal.a(ALu.o)
                               0x1556 (size before relaxing)
 .debug_str     0x00003b76       0xa0 D:\oxygine-sound\dependencies\openalext\lib\android\libopenal.a(bs2b.o)
                                0x1e7 (size before relaxing)
 .debug_str     0x00003c16      0x118 D:\oxygine-sound\dependencies\openalext\lib\android\libopenal.a(null.o)
                                0x7ec (size before relaxing)
 .debug_str     0x00003d2e       0xa6 D:\oxygine-sound\dependencies\openalext\lib\android\libopenal.a(panning.o)
                                0x708 (size before relaxing)
 .debug_str     0x00003dd4      0x68b D:\oxygine-sound\dependencies\openalext\lib\android\libopenal.a(mixer.o)
                               0x1444 (size before relaxing)
 .debug_str     0x0000445f      0x28f D:\oxygine-sound\dependencies\openalext\lib\android\libopenal.a(audiotrack.o)
                               0x1d3b (size before relaxing)
 .debug_str     0x000046ee      0xd19 D:\oxygine-sound\dependencies\openalext\lib\android\libopenal.a(opensles.o)
                               0x29c2 (size before relaxing)
 .debug_str     0x00005407      0x205 D:\oxygine-sound\dependencies\openalext\lib\android\libopenal.a(alAuxEffectSlot.o)
                                0xd0f (size before relaxing)
 .debug_str     0x0000560c      0x1c0 D:\oxygine-sound\dependencies\openalext\lib\android\libopenal.a(alDatabuffer.o)
                                0x8b7 (size before relaxing)
 .debug_str     0x000057cc       0xdf D:\oxygine-sound\dependencies\openalext\lib\android\libopenal.a(alEffect.o)
                                0x928 (size before relaxing)
 .debug_str     0x000058ab       0x6c D:\oxygine-sound\dependencies\openalext\lib\android\libopenal.a(alExtension.o)
                                0xd69 (size before relaxing)
 .debug_str     0x00005917       0xd1 D:\oxygine-sound\dependencies\openalext\lib\android\libopenal.a(alFilter.o)
                                0x77c (size before relaxing)
 .debug_str     0x000059e8       0xf6 D:\oxygine-sound\dependencies\openalext\lib\android\libopenal.a(alListener.o)
                                0xa8f (size before relaxing)
 .debug_str     0x00005ade      0x186 D:\oxygine-sound\dependencies\openalext\lib\android\libopenal.a(alState.o)
                                0xabb (size before relaxing)
 .debug_str     0x00005c64       0xc4 D:\oxygine-sound\dependencies\openalext\lib\android\libopenal.a(alcEcho.o)
                                0x982 (size before relaxing)
 .debug_str     0x00005d28       0xc9 D:\oxygine-sound\dependencies\openalext\lib\android\libopenal.a(alcModulator.o)
                                0x970 (size before relaxing)
 .debug_str     0x00005df1      0x4ca D:\oxygine-sound\dependencies\openalext\lib\android\libopenal.a(alcReverb.o)
                                0xe82 (size before relaxing)
 .debug_str     0x000062bb       0x49 D:\oxygine-sound\dependencies\openalext\lib\android\libopenal.a(alcThread.o)
                                0x169 (size before relaxing)
 .debug_str     0x00006304       0x97 d:/android/android-ndk-r8e/toolchains/arm-linux-androideabi-4.4.3/prebuilt/windows/bin/../lib/gcc/arm-linux-androideabi/4.4.3\libgcc.a(bpabi.o)
                                 0xbc (size before relaxing)
 .debug_str     0x0000639b      0x7da d:/android/android-ndk-r8e/toolchains/arm-linux-androideabi-4.4.3/prebuilt/windows/bin/../lib/gcc/arm-linux-androideabi/4.4.3\libgcc.a(unwind-arm.o)
                                0x8d2 (size before relaxing)
 .debug_str     0x00006b75      0x11b d:/android/android-ndk-r8e/toolchains/arm-linux-androideabi-4.4.3/prebuilt/windows/bin/../lib/gcc/arm-linux-androideabi/4.4.3\libgcc.a(pr-support.o)
                                0x438 (size before relaxing)
 .debug_str     0x00006c90      0x125 d:/android/android-ndk-r8e/toolchains/arm-linux-androideabi-4.4.3/prebuilt/windows/bin/../lib/gcc/arm-linux-androideabi/4.4.3\libgcc.a(_divdi3.o)
                                0x1f3 (size before relaxing)
 .debug_str     0x00006db5        0xa d:/android/android-ndk-r8e/toolchains/arm-linux-androideabi-4.4.3/prebuilt/windows/bin/../lib/gcc/arm-linux-androideabi/4.4.3\libgcc.a(_udivdi3.o)
                                0x1f4 (size before relaxing)

.debug_loc      0x00000000    0x7d0b6
 *(.debug_loc)
 .debug_loc     0x00000000       0xd7 D:\oxygine-sound\dependencies\openalext\lib\android\libopenal.a(android.o)
 .debug_loc     0x000000d7     0x3d24 D:\oxygine-sound\dependencies\openalext\lib\android\libopenal.a(alBuffer.o)
 .debug_loc     0x00003dfb       0x53 D:\oxygine-sound\dependencies\openalext\lib\android\libopenal.a(alError.o)
 .debug_loc     0x00003e4e     0x4927 D:\oxygine-sound\dependencies\openalext\lib\android\libopenal.a(alSource.o)
 .debug_loc     0x00008775     0x2809 D:\oxygine-sound\dependencies\openalext\lib\android\libopenal.a(ALc.o)
 .debug_loc     0x0000af7e      0x678 D:\oxygine-sound\dependencies\openalext\lib\android\libopenal.a(alcConfig.o)
 .debug_loc     0x0000b5f6     0x94b5 D:\oxygine-sound\dependencies\openalext\lib\android\libopenal.a(ALu.o)
 .debug_loc     0x00014aab      0x679 D:\oxygine-sound\dependencies\openalext\lib\android\libopenal.a(bs2b.o)
 .debug_loc     0x00015124      0x3ea D:\oxygine-sound\dependencies\openalext\lib\android\libopenal.a(null.o)
 .debug_loc     0x0001550e      0x6ca D:\oxygine-sound\dependencies\openalext\lib\android\libopenal.a(panning.o)
 .debug_loc     0x00015bd8    0x58a20 D:\oxygine-sound\dependencies\openalext\lib\android\libopenal.a(mixer.o)
 .debug_loc     0x0006e5f8      0x441 D:\oxygine-sound\dependencies\openalext\lib\android\libopenal.a(audiotrack.o)
 .debug_loc     0x0006ea39     0x120f D:\oxygine-sound\dependencies\openalext\lib\android\libopenal.a(opensles.o)
 .debug_loc     0x0006fc48      0xfd1 D:\oxygine-sound\dependencies\openalext\lib\android\libopenal.a(alAuxEffectSlot.o)
 .debug_loc     0x00070c19     0x12b2 D:\oxygine-sound\dependencies\openalext\lib\android\libopenal.a(alDatabuffer.o)
 .debug_loc     0x00071ecb     0x11bf D:\oxygine-sound\dependencies\openalext\lib\android\libopenal.a(alEffect.o)
 .debug_loc     0x0007308a      0x15f D:\oxygine-sound\dependencies\openalext\lib\android\libopenal.a(alExtension.o)
 .debug_loc     0x000731e9     0x1055 D:\oxygine-sound\dependencies\openalext\lib\android\libopenal.a(alFilter.o)
 .debug_loc     0x0007423e      0xd71 D:\oxygine-sound\dependencies\openalext\lib\android\libopenal.a(alListener.o)
 .debug_loc     0x00074faf      0xba7 D:\oxygine-sound\dependencies\openalext\lib\android\libopenal.a(alState.o)
 .debug_loc     0x00075b56      0x4b8 D:\oxygine-sound\dependencies\openalext\lib\android\libopenal.a(alcEcho.o)
 .debug_loc     0x0007600e      0x53e D:\oxygine-sound\dependencies\openalext\lib\android\libopenal.a(alcModulator.o)
 .debug_loc     0x0007654c     0x4901 D:\oxygine-sound\dependencies\openalext\lib\android\libopenal.a(alcReverb.o)
 .debug_loc     0x0007ae4d      0x15c D:\oxygine-sound\dependencies\openalext\lib\android\libopenal.a(alcThread.o)
 .debug_loc     0x0007afa9      0x120 d:/android/android-ndk-r8e/toolchains/arm-linux-androideabi-4.4.3/prebuilt/windows/bin/../lib/gcc/arm-linux-androideabi/4.4.3\libgcc.a(bpabi.o)
 .debug_loc     0x0007b0c9      0xfef d:/android/android-ndk-r8e/toolchains/arm-linux-androideabi-4.4.3/prebuilt/windows/bin/../lib/gcc/arm-linux-androideabi/4.4.3\libgcc.a(unwind-arm.o)
 .debug_loc     0x0007c0b8      0x2f9 d:/android/android-ndk-r8e/toolchains/arm-linux-androideabi-4.4.3/prebuilt/windows/bin/../lib/gcc/arm-linux-androideabi/4.4.3\libgcc.a(pr-support.o)
 .debug_loc     0x0007c3b1      0x6cf d:/android/android-ndk-r8e/toolchains/arm-linux-androideabi-4.4.3/prebuilt/windows/bin/../lib/gcc/arm-linux-androideabi/4.4.3\libgcc.a(_divdi3.o)
 .debug_loc     0x0007ca80      0x636 d:/android/android-ndk-r8e/toolchains/arm-linux-androideabi-4.4.3/prebuilt/windows/bin/../lib/gcc/arm-linux-androideabi/4.4.3\libgcc.a(_udivdi3.o)

.debug_macinfo
 *(.debug_macinfo)

.debug_weaknames
 *(.debug_weaknames)

.debug_funcnames
 *(.debug_funcnames)

.debug_typenames
 *(.debug_typenames)

.debug_varnames
 *(.debug_varnames)

.debug_pubtypes
                0x00000000     0x6722
 *(.debug_pubtypes)
 .debug_pubtypes
                0x00000000      0x553 D:\oxygine-sound\dependencies\openalext\lib\android\libopenal.a(android.o)
 .debug_pubtypes
                0x00000553      0x56d D:\oxygine-sound\dependencies\openalext\lib\android\libopenal.a(alBuffer.o)
 .debug_pubtypes
                0x00000ac0      0x2cf D:\oxygine-sound\dependencies\openalext\lib\android\libopenal.a(alError.o)
 .debug_pubtypes
                0x00000d8f      0x695 D:\oxygine-sound\dependencies\openalext\lib\android\libopenal.a(alSource.o)
 .debug_pubtypes
                0x00001424      0x77c D:\oxygine-sound\dependencies\openalext\lib\android\libopenal.a(ALc.o)
 .debug_pubtypes
                0x00001ba0      0x173 D:\oxygine-sound\dependencies\openalext\lib\android\libopenal.a(alcConfig.o)
 .debug_pubtypes
                0x00001d13      0x702 D:\oxygine-sound\dependencies\openalext\lib\android\libopenal.a(ALu.o)
 .debug_pubtypes
                0x00002415      0x104 D:\oxygine-sound\dependencies\openalext\lib\android\libopenal.a(bs2b.o)
 .debug_pubtypes
                0x00002519      0x332 D:\oxygine-sound\dependencies\openalext\lib\android\libopenal.a(null.o)
 .debug_pubtypes
                0x0000284b      0x2d9 D:\oxygine-sound\dependencies\openalext\lib\android\libopenal.a(panning.o)
 .debug_pubtypes
                0x00002b24      0x5ff D:\oxygine-sound\dependencies\openalext\lib\android\libopenal.a(mixer.o)
 .debug_pubtypes
                0x00003123      0x57d D:\oxygine-sound\dependencies\openalext\lib\android\libopenal.a(audiotrack.o)
 .debug_pubtypes
                0x000036a0      0xaf2 D:\oxygine-sound\dependencies\openalext\lib\android\libopenal.a(opensles.o)
 .debug_pubtypes
                0x00004192      0x3be D:\oxygine-sound\dependencies\openalext\lib\android\libopenal.a(alAuxEffectSlot.o)
 .debug_pubtypes
                0x00004550      0x343 D:\oxygine-sound\dependencies\openalext\lib\android\libopenal.a(alDatabuffer.o)
 .debug_pubtypes
                0x00004893      0x2ff D:\oxygine-sound\dependencies\openalext\lib\android\libopenal.a(alEffect.o)
 .debug_pubtypes
                0x00004b92      0x5eb D:\oxygine-sound\dependencies\openalext\lib\android\libopenal.a(alExtension.o)
 .debug_pubtypes
                0x0000517d      0x2ff D:\oxygine-sound\dependencies\openalext\lib\android\libopenal.a(alFilter.o)
 .debug_pubtypes
                0x0000547c      0x35e D:\oxygine-sound\dependencies\openalext\lib\android\libopenal.a(alListener.o)
 .debug_pubtypes
                0x000057da      0x3b1 D:\oxygine-sound\dependencies\openalext\lib\android\libopenal.a(alState.o)
 .debug_pubtypes
                0x00005b8b      0x364 D:\oxygine-sound\dependencies\openalext\lib\android\libopenal.a(alcEcho.o)
 .debug_pubtypes
                0x00005eef      0x378 D:\oxygine-sound\dependencies\openalext\lib\android\libopenal.a(alcModulator.o)
 .debug_pubtypes
                0x00006267      0x3a8 D:\oxygine-sound\dependencies\openalext\lib\android\libopenal.a(alcReverb.o)
 .debug_pubtypes
                0x0000660f      0x113 D:\oxygine-sound\dependencies\openalext\lib\android\libopenal.a(alcThread.o)

.debug_ranges   0x00000000    0x3cdf8
 *(.debug_ranges)
 .debug_ranges  0x00000000       0x30 D:\oxygine-sound\dependencies\openalext\lib\android\libopenal.a(android.o)
 .debug_ranges  0x00000030      0xb90 D:\oxygine-sound\dependencies\openalext\lib\android\libopenal.a(alBuffer.o)
 .debug_ranges  0x00000bc0       0x18 D:\oxygine-sound\dependencies\openalext\lib\android\libopenal.a(alError.o)
 .debug_ranges  0x00000bd8      0xc80 D:\oxygine-sound\dependencies\openalext\lib\android\libopenal.a(alSource.o)
 .debug_ranges  0x00001858      0x930 D:\oxygine-sound\dependencies\openalext\lib\android\libopenal.a(ALc.o)
 .debug_ranges  0x00002188      0x138 D:\oxygine-sound\dependencies\openalext\lib\android\libopenal.a(alcConfig.o)
 .debug_ranges  0x000022c0     0x3958 D:\oxygine-sound\dependencies\openalext\lib\android\libopenal.a(ALu.o)
 .debug_ranges  0x00005c18       0xc0 D:\oxygine-sound\dependencies\openalext\lib\android\libopenal.a(bs2b.o)
 .debug_ranges  0x00005cd8      0x1e8 D:\oxygine-sound\dependencies\openalext\lib\android\libopenal.a(null.o)
 .debug_ranges  0x00005ec0      0x150 D:\oxygine-sound\dependencies\openalext\lib\android\libopenal.a(panning.o)
 .debug_ranges  0x00006010    0x32690 D:\oxygine-sound\dependencies\openalext\lib\android\libopenal.a(mixer.o)
 .debug_ranges  0x000386a0       0xc0 D:\oxygine-sound\dependencies\openalext\lib\android\libopenal.a(audiotrack.o)
 .debug_ranges  0x00038760      0x558 D:\oxygine-sound\dependencies\openalext\lib\android\libopenal.a(opensles.o)
 .debug_ranges  0x00038cb8      0x2a0 D:\oxygine-sound\dependencies\openalext\lib\android\libopenal.a(alAuxEffectSlot.o)
 .debug_ranges  0x00038f58      0x1b8 D:\oxygine-sound\dependencies\openalext\lib\android\libopenal.a(alDatabuffer.o)
 .debug_ranges  0x00039110      0x270 D:\oxygine-sound\dependencies\openalext\lib\android\libopenal.a(alEffect.o)
 .debug_ranges  0x00039380       0x38 D:\oxygine-sound\dependencies\openalext\lib\android\libopenal.a(alExtension.o)
 .debug_ranges  0x000393b8      0x230 D:\oxygine-sound\dependencies\openalext\lib\android\libopenal.a(alFilter.o)
 .debug_ranges  0x000395e8      0x2c8 D:\oxygine-sound\dependencies\openalext\lib\android\libopenal.a(alListener.o)
 .debug_ranges  0x000398b0      0x1b8 D:\oxygine-sound\dependencies\openalext\lib\android\libopenal.a(alState.o)
 .debug_ranges  0x00039a68       0xe0 D:\oxygine-sound\dependencies\openalext\lib\android\libopenal.a(alcEcho.o)
 .debug_ranges  0x00039b48      0x158 D:\oxygine-sound\dependencies\openalext\lib\android\libopenal.a(alcModulator.o)
 .debug_ranges  0x00039ca0     0x2de8 D:\oxygine-sound\dependencies\openalext\lib\android\libopenal.a(alcReverb.o)
 .debug_ranges  0x0003ca88       0x20 D:\oxygine-sound\dependencies\openalext\lib\android\libopenal.a(alcThread.o)
 .debug_ranges  0x0003caa8      0x1f8 d:/android/android-ndk-r8e/toolchains/arm-linux-androideabi-4.4.3/prebuilt/windows/bin/../lib/gcc/arm-linux-androideabi/4.4.3\libgcc.a(unwind-arm.o)
 .debug_ranges  0x0003cca0       0x30 d:/android/android-ndk-r8e/toolchains/arm-linux-androideabi-4.4.3/prebuilt/windows/bin/../lib/gcc/arm-linux-androideabi/4.4.3\libgcc.a(pr-support.o)
 .debug_ranges  0x0003ccd0       0xa0 d:/android/android-ndk-r8e/toolchains/arm-linux-androideabi-4.4.3/prebuilt/windows/bin/../lib/gcc/arm-linux-androideabi/4.4.3\libgcc.a(_divdi3.o)
 .debug_ranges  0x0003cd70       0x88 d:/android/android-ndk-r8e/toolchains/arm-linux-androideabi-4.4.3/prebuilt/windows/bin/../lib/gcc/arm-linux-androideabi/4.4.3\libgcc.a(_udivdi3.o)

.gnu.attributes
 *(.gnu.attributes)

.note.gnu.arm.ident
 *(.note.gnu.arm.ident)

/DISCARD/
 *(.note.GNU-stack)
 *(.gnu_debuglink)
OUTPUT(D:\oxygine-sound\dependencies\openalext\lib\android\libopenalext.so elf32-littlearm)

.ARM.attributes
                0x00000000       0x33
 .ARM.attributes
                0x00000000       0x2d d:/android/android-ndk-r8e/platforms/android-9/arch-arm/usr/lib/crtbegin_so.o
 .ARM.attributes
                0x0000002d       0x2b release\openalext_platform.os
 .ARM.attributes
                0x00000058       0x2b release\openalext.os
 .ARM.attributes
                0x00000083       0x2b release\openalext_register.os
 .ARM.attributes
                0x000000ae       0x33 D:\oxygine-sound\dependencies\openalext\lib\android\libopenal.a(android.o)
 .ARM.attributes
                0x000000e1       0x33 D:\oxygine-sound\dependencies\openalext\lib\android\libopenal.a(alBuffer.o)
 .ARM.attributes
                0x00000114       0x33 D:\oxygine-sound\dependencies\openalext\lib\android\libopenal.a(alError.o)
 .ARM.attributes
                0x00000147       0x33 D:\oxygine-sound\dependencies\openalext\lib\android\libopenal.a(alSource.o)
 .ARM.attributes
                0x0000017a       0x33 D:\oxygine-sound\dependencies\openalext\lib\android\libopenal.a(ALc.o)
 .ARM.attributes
                0x000001ad       0x33 D:\oxygine-sound\dependencies\openalext\lib\android\libopenal.a(alcConfig.o)
 .ARM.attributes
                0x000001e0       0x33 D:\oxygine-sound\dependencies\openalext\lib\android\libopenal.a(ALu.o)
 .ARM.attributes
                0x00000213       0x33 D:\oxygine-sound\dependencies\openalext\lib\android\libopenal.a(bs2b.o)
 .ARM.attributes
                0x00000246       0x33 D:\oxygine-sound\dependencies\openalext\lib\android\libopenal.a(null.o)
 .ARM.attributes
                0x00000279       0x33 D:\oxygine-sound\dependencies\openalext\lib\android\libopenal.a(panning.o)
 .ARM.attributes
                0x000002ac       0x33 D:\oxygine-sound\dependencies\openalext\lib\android\libopenal.a(mixer.o)
 .ARM.attributes
                0x000002df       0x33 D:\oxygine-sound\dependencies\openalext\lib\android\libopenal.a(audiotrack.o)
 .ARM.attributes
                0x00000312       0x33 D:\oxygine-sound\dependencies\openalext\lib\android\libopenal.a(opensles.o)
 .ARM.attributes
                0x00000345       0x33 D:\oxygine-sound\dependencies\openalext\lib\android\libopenal.a(alAuxEffectSlot.o)
 .ARM.attributes
                0x00000378       0x33 D:\oxygine-sound\dependencies\openalext\lib\android\libopenal.a(alDatabuffer.o)
 .ARM.attributes
                0x000003ab       0x33 D:\oxygine-sound\dependencies\openalext\lib\android\libopenal.a(alEffect.o)
 .ARM.attributes
                0x000003de       0x33 D:\oxygine-sound\dependencies\openalext\lib\android\libopenal.a(alExtension.o)
 .ARM.attributes
                0x00000411       0x33 D:\oxygine-sound\dependencies\openalext\lib\android\libopenal.a(alFilter.o)
 .ARM.attributes
                0x00000444       0x33 D:\oxygine-sound\dependencies\openalext\lib\android\libopenal.a(alListener.o)
 .ARM.attributes
                0x00000477       0x33 D:\oxygine-sound\dependencies\openalext\lib\android\libopenal.a(alState.o)
 .ARM.attributes
                0x000004aa       0x33 D:\oxygine-sound\dependencies\openalext\lib\android\libopenal.a(alcEcho.o)
 .ARM.attributes
                0x000004dd       0x33 D:\oxygine-sound\dependencies\openalext\lib\android\libopenal.a(alcModulator.o)
 .ARM.attributes
                0x00000510       0x33 D:\oxygine-sound\dependencies\openalext\lib\android\libopenal.a(alcReverb.o)
 .ARM.attributes
                0x00000543       0x33 D:\oxygine-sound\dependencies\openalext\lib\android\libopenal.a(alcThread.o)
 .ARM.attributes
                0x00000576       0x19 d:/android/android-ndk-r8e/toolchains/arm-linux-androideabi-4.4.3/prebuilt/windows/bin/../lib/gcc/arm-linux-androideabi/4.4.3\libgcc.a(_udivsi3.o)
 .ARM.attributes
                0x0000058f       0x19 d:/android/android-ndk-r8e/toolchains/arm-linux-androideabi-4.4.3/prebuilt/windows/bin/../lib/gcc/arm-linux-androideabi/4.4.3\libgcc.a(_divsi3.o)
 .ARM.attributes
                0x000005a8       0x19 d:/android/android-ndk-r8e/toolchains/arm-linux-androideabi-4.4.3/prebuilt/windows/bin/../lib/gcc/arm-linux-androideabi/4.4.3\libgcc.a(_aeabi_ldivmod.o)
 .ARM.attributes
                0x000005c1       0x19 d:/android/android-ndk-r8e/toolchains/arm-linux-androideabi-4.4.3/prebuilt/windows/bin/../lib/gcc/arm-linux-androideabi/4.4.3\libgcc.a(_aeabi_uldivmod.o)
 .ARM.attributes
                0x000005da       0x19 d:/android/android-ndk-r8e/toolchains/arm-linux-androideabi-4.4.3/prebuilt/windows/bin/../lib/gcc/arm-linux-androideabi/4.4.3\libgcc.a(_dvmd_lnx.o)
 .ARM.attributes
                0x000005f3       0x29 d:/android/android-ndk-r8e/toolchains/arm-linux-androideabi-4.4.3/prebuilt/windows/bin/../lib/gcc/arm-linux-androideabi/4.4.3\libgcc.a(bpabi.o)
 .ARM.attributes
                0x0000061c       0x29 d:/android/android-ndk-r8e/toolchains/arm-linux-androideabi-4.4.3/prebuilt/windows/bin/../lib/gcc/arm-linux-androideabi/4.4.3\libgcc.a(unwind-arm.o)
 .ARM.attributes
                0x00000645       0x19 d:/android/android-ndk-r8e/toolchains/arm-linux-androideabi-4.4.3/prebuilt/windows/bin/../lib/gcc/arm-linux-androideabi/4.4.3\libgcc.a(libunwind.o)
 .ARM.attributes
                0x0000065e       0x29 d:/android/android-ndk-r8e/toolchains/arm-linux-androideabi-4.4.3/prebuilt/windows/bin/../lib/gcc/arm-linux-androideabi/4.4.3\libgcc.a(pr-support.o)
 .ARM.attributes
                0x00000687       0x29 d:/android/android-ndk-r8e/toolchains/arm-linux-androideabi-4.4.3/prebuilt/windows/bin/../lib/gcc/arm-linux-androideabi/4.4.3\libgcc.a(_divdi3.o)
 .ARM.attributes
                0x000006b0       0x29 d:/android/android-ndk-r8e/toolchains/arm-linux-androideabi-4.4.3/prebuilt/windows/bin/../lib/gcc/arm-linux-androideabi/4.4.3\libgcc.a(_udivdi3.o)
 .ARM.attributes
                0x000006d9       0x1f d:/android/android-ndk-r8e/platforms/android-9/arch-arm/usr/lib/crtend_so.o
